
apc.rts.o:     file format elf32-powerpc-blrts

Disassembly of section .text:

00000000 <ApcStop>:
       0:	7c 88 02 a6 	mflr    r4
       4:	94 21 fe 30 	stwu    r1,-464(r1)
       8:	3d 20 00 00 	lis     r9,0
       c:	93 e1 01 cc 	stw     r31,460(r1)
      10:	93 61 01 bc 	stw     r27,444(r1)
      14:	7c 7f 1b 78 	mr      r31,r3
      18:	90 81 01 d4 	stw     r4,468(r1)
      1c:	80 09 00 00 	lwz     r0,0(r9)
      20:	93 81 01 c0 	stw     r28,448(r1)
      24:	2f 80 00 00 	cmpwi   cr7,r0,0
      28:	93 a1 01 c4 	stw     r29,452(r1)
      2c:	93 c1 01 c8 	stw     r30,456(r1)
      30:	40 9e 00 28 	bne-    cr7,58 <ApcStop+0x58>
      34:	83 c1 01 d4 	lwz     r30,468(r1)
      38:	83 61 01 bc 	lwz     r27,444(r1)
      3c:	7f c8 03 a6 	mtlr    r30
      40:	83 81 01 c0 	lwz     r28,448(r1)
      44:	83 a1 01 c4 	lwz     r29,452(r1)
      48:	83 c1 01 c8 	lwz     r30,456(r1)
      4c:	83 e1 01 cc 	lwz     r31,460(r1)
      50:	38 21 01 d0 	addi    r1,r1,464
      54:	4e 80 00 20 	blr
      58:	48 00 00 01 	bl      58 <ApcStop+0x58>
      5c:	7c 9c 23 78 	mr      r28,r4
      60:	7c 7b 1b 78 	mr      r27,r3
      64:	38 80 01 a0 	li      r4,416
      68:	38 61 00 10 	addi    r3,r1,16
      6c:	48 00 00 01 	bl      6c <ApcStop+0x6c>
      70:	28 1f 00 07 	cmplwi  r31,7
      74:	41 81 00 6c 	bgt-    e0 <ApcStop+0xe0>
      78:	1f bf 03 58 	mulli   r29,r31,856
      7c:	3c e0 00 00 	lis     r7,0
      80:	38 87 00 00 	addi    r4,r7,0
      84:	7c 7d 20 2e 	lwzx    r3,r29,r4
      88:	7f dd 22 14 	add     r30,r29,r4
      8c:	2c 83 00 00 	cmpwi   cr1,r3,0
      90:	41 86 00 10 	beq-    cr1,a0 <ApcStop+0xa0>
      94:	81 1e 00 04 	lwz     r8,4(r30)
      98:	2f 08 00 00 	cmpwi   cr6,r8,0
      9c:	40 9a 00 58 	bne-    cr6,f4 <ApcStop+0xf4>
      a0:	3d 60 00 00 	lis     r11,0
      a4:	3d 40 00 00 	lis     r10,0
      a8:	80 6b 00 00 	lwz     r3,0(r11)
      ac:	38 8a 4b dc 	addi    r4,r10,19420
      b0:	7f e5 fb 78 	mr      r5,r31
      b4:	4c c6 31 82 	crclr   4*cr1+eq
      b8:	48 00 00 01 	bl      b8 <ApcStop+0xb8>
      bc:	83 c1 01 d4 	lwz     r30,468(r1)
      c0:	83 61 01 bc 	lwz     r27,444(r1)
      c4:	7f c8 03 a6 	mtlr    r30
      c8:	83 81 01 c0 	lwz     r28,448(r1)
      cc:	83 a1 01 c4 	lwz     r29,452(r1)
      d0:	83 c1 01 c8 	lwz     r30,456(r1)
      d4:	83 e1 01 cc 	lwz     r31,460(r1)
      d8:	38 21 01 d0 	addi    r1,r1,464
      dc:	4e 80 00 20 	blr
      e0:	3c c0 00 00 	lis     r6,0
      e4:	3c a0 00 00 	lis     r5,0
      e8:	80 66 00 00 	lwz     r3,0(r6)
      ec:	38 85 4c 10 	addi    r4,r5,19472
      f0:	4b ff ff c0 	b       b0 <ApcStop+0xb0>
      f4:	80 fe 00 08 	lwz     r7,8(r30)
      f8:	7f df f3 78 	mr      r31,r30
      fc:	81 1e 00 0c 	lwz     r8,12(r30)
     100:	7c 80 23 78 	mr      r0,r4
     104:	80 be 01 b0 	lwz     r5,432(r30)
     108:	80 de 01 b4 	lwz     r6,436(r30)
     10c:	7d 48 e0 10 	subfc   r10,r8,r28
     110:	7d 27 d9 10 	subfe   r9,r7,r27
     114:	7d 86 50 14 	addc    r12,r6,r10
     118:	7d 65 49 14 	adde    r11,r5,r9
     11c:	91 9e 01 b4 	stw     r12,436(r30)
     120:	39 80 00 34 	li      r12,52
     124:	7d 89 03 a6 	mtctr   r12
     128:	91 7e 01 b0 	stw     r11,432(r30)
     12c:	3b c1 00 10 	addi    r30,r1,16
     130:	80 7e 00 00 	lwz     r3,0(r30)
     134:	80 9e 00 04 	lwz     r4,4(r30)
     138:	3b de 00 08 	addi    r30,r30,8
     13c:	80 ff 00 10 	lwz     r7,16(r31)
     140:	81 1f 00 14 	lwz     r8,20(r31)
     144:	80 bf 01 b8 	lwz     r5,440(r31)
     148:	80 df 01 bc 	lwz     r6,444(r31)
     14c:	7f 88 20 10 	subfc   r28,r8,r4
     150:	7f 67 19 10 	subfe   r27,r7,r3
     154:	7d 86 e0 14 	addc    r12,r6,r28
     158:	7d 65 d9 14 	adde    r11,r5,r27
     15c:	91 7f 01 b8 	stw     r11,440(r31)
     160:	91 9f 01 bc 	stw     r12,444(r31)
     164:	3b ff 00 08 	addi    r31,r31,8
     168:	42 00 ff c8 	bdnz+   130 <ApcStop+0x130>
     16c:	7f 9d 02 14 	add     r28,r29,r0
     170:	3b a0 00 00 	li      r29,0
     174:	93 bc 00 04 	stw     r29,4(r28)
     178:	4b ff fe bc 	b       34 <ApcStop+0x34>

0000017c <ApcFinalize>:
     17c:	7c 68 02 a6 	mflr    r3
     180:	94 21 f4 70 	stwu    r1,-2960(r1)
     184:	92 61 0b 5c 	stw     r19,2908(r1)
     188:	3e 60 00 00 	lis     r19,0
     18c:	92 01 0b 50 	stw     r16,2896(r1)
     190:	90 61 0b 94 	stw     r3,2964(r1)
     194:	80 13 00 00 	lwz     r0,0(r19)
     198:	92 21 0b 54 	stw     r17,2900(r1)
     19c:	2f 80 00 00 	cmpwi   cr7,r0,0
     1a0:	92 41 0b 58 	stw     r18,2904(r1)
     1a4:	92 81 0b 60 	stw     r20,2912(r1)
     1a8:	92 a1 0b 64 	stw     r21,2916(r1)
     1ac:	92 c1 0b 68 	stw     r22,2920(r1)
     1b0:	92 e1 0b 6c 	stw     r23,2924(r1)
     1b4:	93 01 0b 70 	stw     r24,2928(r1)
     1b8:	93 21 0b 74 	stw     r25,2932(r1)
     1bc:	93 41 0b 78 	stw     r26,2936(r1)
     1c0:	93 61 0b 7c 	stw     r27,2940(r1)
     1c4:	93 81 0b 80 	stw     r28,2944(r1)
     1c8:	93 a1 0b 84 	stw     r29,2948(r1)
     1cc:	93 c1 0b 88 	stw     r30,2952(r1)
     1d0:	93 e1 0b 8c 	stw     r31,2956(r1)
     1d4:	40 9e 00 54 	bne-    cr7,228 <ApcFinalize+0xac>
     1d8:	83 e1 0b 94 	lwz     r31,2964(r1)
     1dc:	82 01 0b 50 	lwz     r16,2896(r1)
     1e0:	7f e8 03 a6 	mtlr    r31
     1e4:	82 21 0b 54 	lwz     r17,2900(r1)
     1e8:	82 41 0b 58 	lwz     r18,2904(r1)
     1ec:	82 61 0b 5c 	lwz     r19,2908(r1)
     1f0:	82 81 0b 60 	lwz     r20,2912(r1)
     1f4:	82 a1 0b 64 	lwz     r21,2916(r1)
     1f8:	82 c1 0b 68 	lwz     r22,2920(r1)
     1fc:	82 e1 0b 6c 	lwz     r23,2924(r1)
     200:	83 01 0b 70 	lwz     r24,2928(r1)
     204:	83 21 0b 74 	lwz     r25,2932(r1)
     208:	83 41 0b 78 	lwz     r26,2936(r1)
     20c:	83 61 0b 7c 	lwz     r27,2940(r1)
     210:	83 81 0b 80 	lwz     r28,2944(r1)
     214:	83 a1 0b 84 	lwz     r29,2948(r1)
     218:	83 c1 0b 88 	lwz     r30,2952(r1)
     21c:	83 e1 0b 8c 	lwz     r31,2956(r1)
     220:	38 21 0b 90 	addi    r1,r1,2960
     224:	4e 80 00 20 	blr
     228:	48 00 00 01 	bl      228 <ApcFinalize+0xac>
     22c:	7c 9e 23 78 	mr      r30,r4
     230:	7c 7d 1b 78 	mr      r29,r3
     234:	38 80 01 a0 	li      r4,416
     238:	38 61 08 00 	addi    r3,r1,2048
     23c:	48 00 00 01 	bl      23c <ApcFinalize+0xc0>
     240:	3d 20 00 00 	lis     r9,0
     244:	80 89 00 00 	lwz     r4,0(r9)
     248:	3b e9 00 00 	addi    r31,r9,0
     24c:	2c 04 00 00 	cmpwi   r4,0
     250:	41 82 00 10 	beq-    260 <ApcFinalize+0xe4>
     254:	80 bf 00 04 	lwz     r5,4(r31)
     258:	2c 85 00 00 	cmpwi   cr1,r5,0
     25c:	40 86 02 4c 	bne-    cr1,4a8 <ApcFinalize+0x32c>
     260:	3c e0 00 00 	lis     r7,0
     264:	3c c0 00 00 	lis     r6,0
     268:	80 67 00 00 	lwz     r3,0(r7)
     26c:	38 86 4b dc 	addi    r4,r6,19420
     270:	38 a0 00 00 	li      r5,0
     274:	4c c6 31 82 	crclr   4*cr1+eq
     278:	48 00 00 01 	bl      278 <ApcFinalize+0xfc>
     27c:	3e 40 00 00 	lis     r18,0
     280:	3b a0 00 01 	li      r29,1
     284:	3b 72 00 00 	addi    r27,r18,0
     288:	3e e0 00 00 	lis     r23,0
     28c:	3a c1 00 08 	addi    r22,r1,8
     290:	7f 75 db 78 	mr      r21,r27
     294:	3b 40 00 6b 	li      r26,107
     298:	3b c0 03 58 	li      r30,856
     29c:	7f 1e d8 2e 	lwzx    r24,r30,r27
     2a0:	7f 9e da 14 	add     r28,r30,r27
     2a4:	2f 18 00 00 	cmpwi   cr6,r24,0
     2a8:	41 9a 00 1c 	beq-    cr6,2c4 <ApcFinalize+0x148>
     2ac:	83 3c 00 04 	lwz     r25,4(r28)
     2b0:	2f 99 00 00 	cmpwi   cr7,r25,0
     2b4:	41 9e 00 10 	beq-    cr7,2c4 <ApcFinalize+0x148>
     2b8:	83 f3 00 00 	lwz     r31,0(r19)
     2bc:	2c 1f 00 00 	cmpwi   r31,0
     2c0:	40 82 02 70 	bne-    530 <ApcFinalize+0x3b4>
     2c4:	3b bd 00 01 	addi    r29,r29,1
     2c8:	3b de 03 58 	addi    r30,r30,856
     2cc:	2c 1d 00 07 	cmpwi   r29,7
     2d0:	3b 5a 00 6b 	addi    r26,r26,107
     2d4:	40 81 ff c8 	ble+    29c <ApcFinalize+0x120>
     2d8:	3a 01 00 30 	addi    r16,r1,48
     2dc:	38 80 07 c8 	li      r4,1992
     2e0:	7e 03 83 78 	mr      r3,r16
     2e4:	48 00 00 01 	bl      2e4 <ApcFinalize+0x168>
     2e8:	2c 83 00 00 	cmpwi   cr1,r3,0
     2ec:	40 86 03 64 	bne-    cr1,650 <ApcFinalize+0x4d4>
     2f0:	3e e0 00 00 	lis     r23,0
     2f4:	38 80 01 fd 	li      r4,509
     2f8:	38 77 4c 3c 	addi    r3,r23,19516
     2fc:	3f 00 00 00 	lis     r24,0
     300:	3e e0 00 00 	lis     r23,0
     304:	48 00 00 01 	bl      304 <ApcFinalize+0x188>
     308:	3e c0 00 00 	lis     r22,0
     30c:	3b e1 00 10 	addi    r31,r1,16
     310:	80 b7 00 04 	lwz     r5,4(r23)
     314:	38 96 4c 44 	addi    r4,r22,19524
     318:	80 d8 00 08 	lwz     r6,8(r24)
     31c:	7f e3 fb 78 	mr      r3,r31
     320:	3e a0 00 00 	lis     r21,0
     324:	4c c6 31 82 	crclr   4*cr1+eq
     328:	48 00 00 01 	bl      328 <ApcFinalize+0x1ac>
     32c:	7f e3 fb 78 	mr      r3,r31
     330:	38 95 4c 5c 	addi    r4,r21,19548
     334:	48 00 00 01 	bl      334 <ApcFinalize+0x1b8>
     338:	7c 7d 1b 79 	mr.     r29,r3
     33c:	41 82 02 f8 	beq-    634 <ApcFinalize+0x4b8>
     340:	3f 60 00 00 	lis     r27,0
     344:	3b c0 00 00 	li      r30,0
     348:	3a db 00 00 	addi    r22,r27,0
     34c:	3a 40 01 48 	li      r18,328
     350:	3a 80 00 00 	li      r20,0
     354:	3a a1 0b 40 	addi    r21,r1,2880
     358:	7e d1 b3 78 	mr      r17,r22
     35c:	3b 60 00 00 	li      r27,0
     360:	3b 40 00 00 	li      r26,0
     364:	48 00 00 18 	b       37c <ApcFinalize+0x200>
     368:	3b de 00 01 	addi    r30,r30,1
     36c:	3b 5a 03 58 	addi    r26,r26,856
     370:	2c 1e 00 07 	cmpwi   r30,7
     374:	3b 7b 00 6b 	addi    r27,r27,107
     378:	41 81 00 e0 	bgt-    458 <ApcFinalize+0x2dc>
     37c:	7d 1a b0 2e 	lwzx    r8,r26,r22
     380:	7d 3a b2 14 	add     r9,r26,r22
     384:	2f 08 00 00 	cmpwi   cr6,r8,0
     388:	41 9a ff e0 	beq+    cr6,368 <ApcFinalize+0x1ec>
     38c:	c8 09 01 b0 	lfd     f0,432(r9)
     390:	7e a3 ab 78 	mr      r3,r21
     394:	81 97 00 04 	lwz     r12,4(r23)
     398:	38 80 00 10 	li      r4,16
     39c:	81 78 00 08 	lwz     r11,8(r24)
     3a0:	38 a0 00 01 	li      r5,1
     3a4:	7f a6 eb 78 	mr      r6,r29
     3a8:	d8 01 0b 40 	stfd    f0,2880(r1)
     3ac:	b1 81 0b 48 	sth     r12,2888(r1)
     3b0:	99 61 0b 4c 	stb     r11,2892(r1)
     3b4:	b2 41 0b 4a 	sth     r18,2890(r1)
     3b8:	9a 81 0b 4e 	stb     r20,2894(r1)
     3bc:	9b c1 0b 4d 	stb     r30,2893(r1)
     3c0:	9a 81 0b 4f 	stb     r20,2895(r1)
     3c4:	48 00 00 01 	bl      3c4 <ApcFinalize+0x248>
     3c8:	81 41 03 14 	lwz     r10,788(r1)
     3cc:	3b e0 00 00 	li      r31,0
     3d0:	2f 8a 00 00 	cmpwi   cr7,r10,0
     3d4:	40 bd ff 94 	ble-    cr7,368 <ApcFinalize+0x1ec>
     3d8:	7e 39 8b 78 	mr      r25,r17
     3dc:	7e 1c 83 78 	mr      r28,r16
     3e0:	80 dc 02 f0 	lwz     r6,752(r28)
     3e4:	81 1c 02 e8 	lwz     r8,744(r28)
     3e8:	7c bb 32 14 	add     r5,r27,r6
     3ec:	80 fc 02 ec 	lwz     r7,748(r28)
     3f0:	54 a4 18 38 	rlwinm  r4,r5,3,0,28
     3f4:	81 57 00 04 	lwz     r10,4(r23)
     3f8:	7c 64 ca 14 	add     r3,r4,r25
     3fc:	81 38 00 08 	lwz     r9,8(r24)
     400:	c8 23 01 b8 	lfd     f1,440(r3)
     404:	38 80 00 10 	li      r4,16
     408:	7e a3 ab 78 	mr      r3,r21
     40c:	38 a0 00 01 	li      r5,1
     410:	7f a6 eb 78 	mr      r6,r29
     414:	d8 21 0b 40 	stfd    f1,2880(r1)
     418:	b1 41 0b 48 	sth     r10,2888(r1)
     41c:	3b 9c 00 18 	addi    r28,r28,24
     420:	b1 01 0b 4a 	sth     r8,2890(r1)
     424:	99 21 0b 4c 	stb     r9,2892(r1)
     428:	98 e1 0b 4e 	stb     r7,2894(r1)
     42c:	9b c1 0b 4d 	stb     r30,2893(r1)
     430:	48 00 00 01 	bl      430 <ApcFinalize+0x2b4>
     434:	80 01 03 14 	lwz     r0,788(r1)
     438:	3b ff 00 01 	addi    r31,r31,1
     43c:	7c 80 f8 00 	cmpw    cr1,r0,r31
     440:	41 85 ff a0 	bgt+    cr1,3e0 <ApcFinalize+0x264>
     444:	3b de 00 01 	addi    r30,r30,1
     448:	3b 5a 03 58 	addi    r26,r26,856
     44c:	2c 1e 00 07 	cmpwi   r30,7
     450:	3b 7b 00 6b 	addi    r27,r27,107
     454:	40 81 ff 28 	ble+    37c <ApcFinalize+0x200>
     458:	7f a3 eb 78 	mr      r3,r29
     45c:	3f c0 00 00 	lis     r30,0
     460:	48 00 00 01 	bl      460 <ApcFinalize+0x2e4>
     464:	83 be 00 0c 	lwz     r29,12(r30)
     468:	2f 1d 00 00 	cmpwi   cr6,r29,0
     46c:	41 9a 00 28 	beq-    cr6,494 <ApcFinalize+0x318>
     470:	3e 40 00 00 	lis     r18,0
     474:	81 32 00 10 	lwz     r9,16(r18)
     478:	7c 00 04 ac 	msync
     47c:	3a 80 00 00 	li      r20,0
     480:	92 89 00 08 	stw     r20,8(r9)
     484:	83 09 00 08 	lwz     r24,8(r9)
     488:	2f 98 00 00 	cmpwi   cr7,r24,0
     48c:	40 9e ff f8 	bne+    cr7,484 <ApcFinalize+0x308>
     490:	7c 00 04 ac 	msync
     494:	48 00 00 01 	bl      494 <ApcFinalize+0x318>
     498:	2c 83 00 00 	cmpwi   cr1,r3,0
     49c:	40 86 01 84 	bne-    cr1,620 <ApcFinalize+0x4a4>
     4a0:	90 73 00 00 	stw     r3,0(r19)
     4a4:	4b ff fd 34 	b       1d8 <ApcFinalize+0x5c>
     4a8:	81 1f 00 0c 	lwz     r8,12(r31)
     4ac:	38 60 00 00 	li      r3,0
     4b0:	80 ff 00 08 	lwz     r7,8(r31)
     4b4:	38 01 00 08 	addi    r0,r1,8
     4b8:	80 bf 01 b0 	lwz     r5,432(r31)
     4bc:	80 df 01 b4 	lwz     r6,436(r31)
     4c0:	7e 28 f0 10 	subfc   r17,r8,r30
     4c4:	7e 07 e9 10 	subfe   r16,r7,r29
     4c8:	39 00 00 34 	li      r8,52
     4cc:	7d 86 88 14 	addc    r12,r6,r17
     4d0:	7d 65 81 14 	adde    r11,r5,r16
     4d4:	7d 09 03 a6 	mtctr   r8
     4d8:	91 7f 01 b0 	stw     r11,432(r31)
     4dc:	91 9f 01 b4 	stw     r12,436(r31)
     4e0:	54 6b 18 38 	rlwinm  r11,r3,3,0,28
     4e4:	38 63 00 01 	addi    r3,r3,1
     4e8:	7e 2b fa 14 	add     r17,r11,r31
     4ec:	7d 4b 02 14 	add     r10,r11,r0
     4f0:	83 8a 07 f8 	lwz     r28,2040(r10)
     4f4:	83 aa 07 fc 	lwz     r29,2044(r10)
     4f8:	80 f1 00 10 	lwz     r7,16(r17)
     4fc:	81 11 00 14 	lwz     r8,20(r17)
     500:	80 b1 01 b8 	lwz     r5,440(r17)
     504:	80 d1 01 bc 	lwz     r6,444(r17)
     508:	7e a8 e8 10 	subfc   r21,r8,r29
     50c:	7e 87 e1 10 	subfe   r20,r7,r28
     510:	7d 86 a8 14 	addc    r12,r6,r21
     514:	7d 65 a1 14 	adde    r11,r5,r20
     518:	91 71 01 b8 	stw     r11,440(r17)
     51c:	91 91 01 bc 	stw     r12,444(r17)
     520:	42 00 ff c0 	bdnz+   4e0 <ApcFinalize+0x364>
     524:	39 80 00 00 	li      r12,0
     528:	91 9f 00 04 	stw     r12,4(r31)
     52c:	4b ff fd 50 	b       27c <ApcFinalize+0x100>
     530:	48 00 00 01 	bl      530 <ApcFinalize+0x3b4>
     534:	7c 99 23 78 	mr      r25,r4
     538:	7c 78 1b 78 	mr      r24,r3
     53c:	38 80 01 a0 	li      r4,416
     540:	38 61 09 a0 	addi    r3,r1,2464
     544:	48 00 00 01 	bl      544 <ApcFinalize+0x3c8>
     548:	28 9d 00 07 	cmplwi  cr1,r29,7
     54c:	41 85 00 c4 	bgt-    cr1,610 <ApcFinalize+0x494>
     550:	7c 1e d8 2e 	lwzx    r0,r30,r27
     554:	2f 00 00 00 	cmpwi   cr6,r0,0
     558:	41 9a 00 10 	beq-    cr6,568 <ApcFinalize+0x3ec>
     55c:	80 7c 00 04 	lwz     r3,4(r28)
     560:	2f 83 00 00 	cmpwi   cr7,r3,0
     564:	40 9e 00 20 	bne-    cr7,584 <ApcFinalize+0x408>
     568:	3c 80 00 00 	lis     r4,0
     56c:	80 77 00 00 	lwz     r3,0(r23)
     570:	38 84 4b dc 	addi    r4,r4,19420
     574:	7f a5 eb 78 	mr      r5,r29
     578:	4c c6 31 82 	crclr   4*cr1+eq
     57c:	48 00 00 01 	bl      57c <ApcFinalize+0x400>
     580:	4b ff fd 44 	b       2c4 <ApcFinalize+0x148>
     584:	81 7c 00 08 	lwz     r11,8(r28)
     588:	39 20 00 34 	li      r9,52
     58c:	81 9c 00 0c 	lwz     r12,12(r28)
     590:	7d 29 03 a6 	mtctr   r9
     594:	80 fc 01 b0 	lwz     r7,432(r28)
     598:	3b f6 09 98 	addi    r31,r22,2456
     59c:	81 1c 01 b4 	lwz     r8,436(r28)
     5a0:	7e 2c c8 10 	subfc   r17,r12,r25
     5a4:	7e 0b c1 10 	subfe   r16,r11,r24
     5a8:	7e b9 ab 78 	mr      r25,r21
     5ac:	7c c8 88 14 	addc    r6,r8,r17
     5b0:	7c a7 81 14 	adde    r5,r7,r16
     5b4:	57 47 18 38 	rlwinm  r7,r26,3,0,28
     5b8:	90 bc 01 b0 	stw     r5,432(r28)
     5bc:	90 dc 01 b4 	stw     r6,436(r28)
     5c0:	7f 87 aa 14 	add     r28,r7,r21
     5c4:	80 7f 00 00 	lwz     r3,0(r31)
     5c8:	80 9f 00 04 	lwz     r4,4(r31)
     5cc:	3b ff 00 08 	addi    r31,r31,8
     5d0:	80 fc 00 10 	lwz     r7,16(r28)
     5d4:	81 1c 00 14 	lwz     r8,20(r28)
     5d8:	80 bc 01 b8 	lwz     r5,440(r28)
     5dc:	80 dc 01 bc 	lwz     r6,444(r28)
     5e0:	7e 48 20 10 	subfc   r18,r8,r4
     5e4:	7e 27 19 10 	subfe   r17,r7,r3
     5e8:	7d 86 90 14 	addc    r12,r6,r18
     5ec:	7d 65 89 14 	adde    r11,r5,r17
     5f0:	91 7c 01 b8 	stw     r11,440(r28)
     5f4:	91 9c 01 bc 	stw     r12,444(r28)
     5f8:	3b 9c 00 08 	addi    r28,r28,8
     5fc:	42 00 ff c8 	bdnz+   5c4 <ApcFinalize+0x448>
     600:	7c be ca 14 	add     r5,r30,r25
     604:	38 c0 00 00 	li      r6,0
     608:	90 c5 00 04 	stw     r6,4(r5)
     60c:	4b ff fc b8 	b       2c4 <ApcFinalize+0x148>
     610:	3f 80 00 00 	lis     r28,0
     614:	80 77 00 00 	lwz     r3,0(r23)
     618:	38 9c 4c 10 	addi    r4,r28,19472
     61c:	4b ff ff 58 	b       574 <ApcFinalize+0x3f8>
     620:	3f 20 00 00 	lis     r25,0
     624:	38 79 4c 60 	addi    r3,r25,19552
     628:	48 00 00 01 	bl      628 <ApcFinalize+0x4ac>
     62c:	38 60 00 01 	li      r3,1
     630:	48 00 00 01 	bl      630 <ApcFinalize+0x4b4>
     634:	3f 40 00 00 	lis     r26,0
     638:	7f e4 fb 78 	mr      r4,r31
     63c:	38 7a 4c 90 	addi    r3,r26,19600
     640:	4c c6 31 82 	crclr   4*cr1+eq
     644:	48 00 00 01 	bl      644 <ApcFinalize+0x4c8>
     648:	38 60 00 01 	li      r3,1
     64c:	48 00 00 01 	bl      64c <ApcFinalize+0x4d0>
     650:	3e 60 00 00 	lis     r19,0
     654:	38 73 4c c8 	addi    r3,r19,19656
     658:	48 00 00 01 	bl      658 <ApcFinalize+0x4dc>
     65c:	4b ff ff d0 	b       62c <ApcFinalize+0x4b0>

00000660 <ApcStart>:
     660:	7c 88 02 a6 	mflr    r4
     664:	94 21 ff e0 	stwu    r1,-32(r1)
     668:	3d 20 00 00 	lis     r9,0
     66c:	93 e1 00 1c 	stw     r31,28(r1)
     670:	2b 03 00 07 	cmplwi  cr6,r3,7
     674:	90 81 00 24 	stw     r4,36(r1)
     678:	80 09 00 00 	lwz     r0,0(r9)
     67c:	2f 80 00 00 	cmpwi   cr7,r0,0
     680:	41 9e 00 64 	beq-    cr7,6e4 <ApcStart+0x84>
     684:	1d 63 03 58 	mulli   r11,r3,856
     688:	3c c0 00 00 	lis     r6,0
     68c:	3c a0 00 00 	lis     r5,0
     690:	39 26 00 00 	addi    r9,r6,0
     694:	38 85 4c ec 	addi    r4,r5,19692
     698:	7f eb 4a 14 	add     r31,r11,r9
     69c:	7c 65 1b 78 	mr      r5,r3
     6a0:	41 99 00 58 	bgt-    cr6,6f8 <ApcStart+0x98>
     6a4:	81 5f 00 04 	lwz     r10,4(r31)
     6a8:	3d 00 00 00 	lis     r8,0
     6ac:	38 68 00 10 	addi    r3,r8,16
     6b0:	38 80 00 01 	li      r4,1
     6b4:	2c 0a 00 01 	cmpwi   r10,1
     6b8:	7c 6b 1a 14 	add     r3,r11,r3
     6bc:	38 a0 00 1d 	li      r5,29
     6c0:	38 00 00 01 	li      r0,1
     6c4:	41 82 00 58 	beq-    71c <ApcStart+0xbc>
     6c8:	38 80 01 a0 	li      r4,416
     6cc:	7c 0b 49 2e 	stwx    r0,r11,r9
     6d0:	90 1f 00 04 	stw     r0,4(r31)
     6d4:	48 00 00 01 	bl      6d4 <ApcStart+0x74>
     6d8:	48 00 00 01 	bl      6d8 <ApcStart+0x78>
     6dc:	90 7f 00 08 	stw     r3,8(r31)
     6e0:	90 9f 00 0c 	stw     r4,12(r31)
     6e4:	83 e1 00 24 	lwz     r31,36(r1)
     6e8:	7f e8 03 a6 	mtlr    r31
     6ec:	83 e1 00 1c 	lwz     r31,28(r1)
     6f0:	38 21 00 20 	addi    r1,r1,32
     6f4:	4e 80 00 20 	blr
     6f8:	3c e0 00 00 	lis     r7,0
     6fc:	80 67 00 00 	lwz     r3,0(r7)
     700:	4c c6 31 82 	crclr   4*cr1+eq
     704:	48 00 00 01 	bl      704 <ApcStart+0xa4>
     708:	83 e1 00 24 	lwz     r31,36(r1)
     70c:	7f e8 03 a6 	mtlr    r31
     710:	83 e1 00 1c 	lwz     r31,28(r1)
     714:	38 21 00 20 	addi    r1,r1,32
     718:	4e 80 00 20 	blr
     71c:	3d 80 00 00 	lis     r12,0
     720:	3d 60 00 00 	lis     r11,0
     724:	80 cc 00 00 	lwz     r6,0(r12)
     728:	38 6b 4d 18 	addi    r3,r11,19736
     72c:	48 00 00 01 	bl      72c <ApcStart+0xcc>
     730:	83 e1 00 24 	lwz     r31,36(r1)
     734:	7f e8 03 a6 	mtlr    r31
     738:	83 e1 00 1c 	lwz     r31,28(r1)
     73c:	38 21 00 20 	addi    r1,r1,32
     740:	4e 80 00 20 	blr

00000744 <ApcInitNode>:
     744:	7c 88 02 a6 	mflr    r4
     748:	94 21 e2 20 	stwu    r1,-7648(r1)
     74c:	93 c1 1d d8 	stw     r30,7640(r1)
     750:	3f c0 00 00 	lis     r30,0
     754:	3c 60 00 00 	lis     r3,0
     758:	93 a1 1d d4 	stw     r29,7636(r1)
     75c:	90 81 1d e4 	stw     r4,7652(r1)
     760:	38 63 4d 38 	addi    r3,r3,19768
     764:	80 1e 00 00 	lwz     r0,0(r30)
     768:	93 e1 1d dc 	stw     r31,7644(r1)
     76c:	2f 80 00 00 	cmpwi   cr7,r0,0
     770:	40 9e 65 bc 	bne-    cr7,6d2c <ApcInitNode+0x65e8>
     774:	38 60 00 64 	li      r3,100
     778:	48 00 00 01 	bl      778 <ApcInitNode+0x34>
     77c:	2c 03 00 64 	cmpwi   r3,100
     780:	7c 65 1b 78 	mr      r5,r3
     784:	40 82 65 80 	bne-    6d04 <ApcInitNode+0x65c0>
     788:	3f a0 00 00 	lis     r29,0
     78c:	38 c0 00 00 	li      r6,0
     790:	38 fd 00 00 	addi    r7,r29,0
     794:	38 a0 00 00 	li      r5,0
     798:	39 60 00 00 	li      r11,0
     79c:	39 80 00 00 	li      r12,0
     7a0:	39 00 00 00 	li      r8,0
     7a4:	39 40 00 00 	li      r10,0
     7a8:	3b e0 00 34 	li      r31,52
     7ac:	7c 6a 3a 14 	add     r3,r10,r7
     7b0:	55 00 18 38 	rlwinm  r0,r8,3,0,28
     7b4:	7f e9 03 a6 	mtctr   r31
     7b8:	91 63 01 b0 	stw     r11,432(r3)
     7bc:	7d 20 3a 14 	add     r9,r0,r7
     7c0:	91 83 01 b4 	stw     r12,436(r3)
     7c4:	7c aa 39 2e 	stwx    r5,r10,r7
     7c8:	91 63 00 08 	stw     r11,8(r3)
     7cc:	91 83 00 0c 	stw     r12,12(r3)
     7d0:	91 69 00 10 	stw     r11,16(r9)
     7d4:	91 89 00 14 	stw     r12,20(r9)
     7d8:	91 69 01 b8 	stw     r11,440(r9)
     7dc:	91 89 01 bc 	stw     r12,444(r9)
     7e0:	39 29 00 08 	addi    r9,r9,8
     7e4:	42 00 ff ec 	bdnz+   7d0 <ApcInitNode+0x8c>
     7e8:	38 c6 00 01 	addi    r6,r6,1
     7ec:	39 4a 03 58 	addi    r10,r10,856
     7f0:	2c 86 00 07 	cmpwi   cr1,r6,7
     7f4:	39 08 00 6b 	addi    r8,r8,107
     7f8:	40 85 ff b0 	ble+    cr1,7a8 <ApcInitNode+0x64>
     7fc:	3c e0 00 00 	lis     r7,0
     800:	80 a7 00 08 	lwz     r5,8(r7)
     804:	2f 05 00 00 	cmpwi   cr6,r5,0
     808:	40 9a 06 30 	bne-    cr6,e38 <ApcInitNode+0x6f4>
     80c:	3d 80 00 00 	lis     r12,0
     810:	81 6c 00 04 	lwz     r11,4(r12)
     814:	7d 6a 26 70 	srawi   r10,r11,4
     818:	7d 4a 01 94 	addze   r10,r10
     81c:	55 48 20 36 	rlwinm  r8,r10,4,0,27
     820:	7c 08 58 50 	subf    r0,r8,r11
     824:	2b 80 00 0f 	cmplwi  cr7,r0,15
     828:	41 9d 00 20 	bgt-    cr7,848 <ApcInitNode+0x104>
     82c:	3c 60 00 00 	lis     r3,0
     830:	54 1f 10 3a 	rlwinm  r31,r0,2,0,29
     834:	39 23 7b 00 	addi    r9,r3,31488
     838:	7c df 48 2e 	lwzx    r6,r31,r9
     83c:	7c 86 4a 14 	add     r4,r6,r9
     840:	7c 89 03 a6 	mtctr   r4
     844:	4e 80 04 20 	bctr
     848:	38 00 00 00 	li      r0,0
     84c:	38 61 00 20 	addi    r3,r1,32
     850:	90 01 00 24 	stw     r0,36(r1)
     854:	90 01 00 10 	stw     r0,16(r1)
     858:	90 01 00 14 	stw     r0,20(r1)
     85c:	90 01 00 20 	stw     r0,32(r1)
     860:	48 00 00 01 	bl      860 <ApcInitNode+0x11c>
     864:	2c 03 00 00 	cmpwi   r3,0
     868:	40 82 0d 38 	bne-    15a0 <ApcInitNode+0xe5c>
     86c:	38 80 00 04 	li      r4,4
     870:	39 80 00 00 	li      r12,0
     874:	38 61 00 30 	addi    r3,r1,48
     878:	90 81 00 30 	stw     r4,48(r1)
     87c:	91 81 00 34 	stw     r12,52(r1)
     880:	90 81 00 10 	stw     r4,16(r1)
     884:	91 81 00 14 	stw     r12,20(r1)
     888:	48 00 00 01 	bl      888 <ApcInitNode+0x144>
     88c:	2c 83 00 00 	cmpwi   cr1,r3,0
     890:	40 86 0c e4 	bne-    cr1,1574 <ApcInitNode+0xe30>
     894:	38 00 00 08 	li      r0,8
     898:	39 00 00 00 	li      r8,0
     89c:	38 61 00 40 	addi    r3,r1,64
     8a0:	90 01 00 40 	stw     r0,64(r1)
     8a4:	91 01 00 44 	stw     r8,68(r1)
     8a8:	90 01 00 10 	stw     r0,16(r1)
     8ac:	91 01 00 14 	stw     r8,20(r1)
     8b0:	48 00 00 01 	bl      8b0 <ApcInitNode+0x16c>
     8b4:	2f 03 00 00 	cmpwi   cr6,r3,0
     8b8:	40 9a 0c 90 	bne-    cr6,1548 <ApcInitNode+0xe04>
     8bc:	3b e0 00 0c 	li      r31,12
     8c0:	38 80 00 00 	li      r4,0
     8c4:	38 61 00 50 	addi    r3,r1,80
     8c8:	93 e1 00 50 	stw     r31,80(r1)
     8cc:	90 81 00 54 	stw     r4,84(r1)
     8d0:	93 e1 00 10 	stw     r31,16(r1)
     8d4:	90 81 00 14 	stw     r4,20(r1)
     8d8:	48 00 00 01 	bl      8d8 <ApcInitNode+0x194>
     8dc:	2f 83 00 00 	cmpwi   cr7,r3,0
     8e0:	40 9e 0c 3c 	bne-    cr7,151c <ApcInitNode+0xdd8>
     8e4:	38 00 00 10 	li      r0,16
     8e8:	39 40 00 00 	li      r10,0
     8ec:	38 61 00 60 	addi    r3,r1,96
     8f0:	90 01 00 60 	stw     r0,96(r1)
     8f4:	91 41 00 64 	stw     r10,100(r1)
     8f8:	90 01 00 10 	stw     r0,16(r1)
     8fc:	91 41 00 14 	stw     r10,20(r1)
     900:	48 00 00 01 	bl      900 <ApcInitNode+0x1bc>
     904:	2c 03 00 00 	cmpwi   r3,0
     908:	40 82 0b e8 	bne-    14f0 <ApcInitNode+0xdac>
     90c:	38 e0 00 11 	li      r7,17
     910:	38 80 00 00 	li      r4,0
     914:	38 61 00 70 	addi    r3,r1,112
     918:	90 e1 00 70 	stw     r7,112(r1)
     91c:	90 81 00 74 	stw     r4,116(r1)
     920:	90 e1 00 10 	stw     r7,16(r1)
     924:	90 81 00 14 	stw     r4,20(r1)
     928:	48 00 00 01 	bl      928 <ApcInitNode+0x1e4>
     92c:	2c 83 00 00 	cmpwi   cr1,r3,0
     930:	40 86 0b 94 	bne-    cr1,14c4 <ApcInitNode+0xd80>
     934:	38 00 00 12 	li      r0,18
     938:	38 c0 00 00 	li      r6,0
     93c:	38 61 00 80 	addi    r3,r1,128
     940:	90 01 00 80 	stw     r0,128(r1)
     944:	90 c1 00 84 	stw     r6,132(r1)
     948:	90 01 00 10 	stw     r0,16(r1)
     94c:	90 c1 00 14 	stw     r6,20(r1)
     950:	48 00 00 01 	bl      950 <ApcInitNode+0x20c>
     954:	2f 03 00 00 	cmpwi   cr6,r3,0
     958:	40 9a 0b 40 	bne-    cr6,1498 <ApcInitNode+0xd54>
     95c:	39 60 00 13 	li      r11,19
     960:	38 80 00 00 	li      r4,0
     964:	38 61 00 90 	addi    r3,r1,144
     968:	91 61 00 90 	stw     r11,144(r1)
     96c:	90 81 00 94 	stw     r4,148(r1)
     970:	91 61 00 10 	stw     r11,16(r1)
     974:	90 81 00 14 	stw     r4,20(r1)
     978:	48 00 00 01 	bl      978 <ApcInitNode+0x234>
     97c:	2f 83 00 00 	cmpwi   cr7,r3,0
     980:	40 9e 0a ec 	bne-    cr7,146c <ApcInitNode+0xd28>
     984:	38 00 00 14 	li      r0,20
     988:	38 a0 00 00 	li      r5,0
     98c:	38 61 00 a0 	addi    r3,r1,160
     990:	90 01 00 a0 	stw     r0,160(r1)
     994:	90 a1 00 a4 	stw     r5,164(r1)
     998:	90 01 00 10 	stw     r0,16(r1)
     99c:	90 a1 00 14 	stw     r5,20(r1)
     9a0:	48 00 00 01 	bl      9a0 <ApcInitNode+0x25c>
     9a4:	2c 03 00 00 	cmpwi   r3,0
     9a8:	40 82 0a 98 	bne-    1440 <ApcInitNode+0xcfc>
     9ac:	39 80 00 15 	li      r12,21
     9b0:	38 80 00 00 	li      r4,0
     9b4:	38 61 00 b0 	addi    r3,r1,176
     9b8:	91 81 00 b0 	stw     r12,176(r1)
     9bc:	90 81 00 b4 	stw     r4,180(r1)
     9c0:	91 81 00 10 	stw     r12,16(r1)
     9c4:	90 81 00 14 	stw     r4,20(r1)
     9c8:	48 00 00 01 	bl      9c8 <ApcInitNode+0x284>
     9cc:	2c 83 00 00 	cmpwi   cr1,r3,0
     9d0:	40 86 0a 44 	bne-    cr1,1414 <ApcInitNode+0xcd0>
     9d4:	38 00 00 16 	li      r0,22
     9d8:	38 e0 00 00 	li      r7,0
     9dc:	38 61 00 c0 	addi    r3,r1,192
     9e0:	90 01 00 c0 	stw     r0,192(r1)
     9e4:	90 e1 00 c4 	stw     r7,196(r1)
     9e8:	90 01 00 10 	stw     r0,16(r1)
     9ec:	90 e1 00 14 	stw     r7,20(r1)
     9f0:	48 00 00 01 	bl      9f0 <ApcInitNode+0x2ac>
     9f4:	2f 03 00 00 	cmpwi   cr6,r3,0
     9f8:	40 9a 09 f0 	bne-    cr6,13e8 <ApcInitNode+0xca4>
     9fc:	3b e0 00 17 	li      r31,23
     a00:	38 80 00 00 	li      r4,0
     a04:	38 61 00 d0 	addi    r3,r1,208
     a08:	93 e1 00 d0 	stw     r31,208(r1)
     a0c:	90 81 00 d4 	stw     r4,212(r1)
     a10:	93 e1 00 10 	stw     r31,16(r1)
     a14:	90 81 00 14 	stw     r4,20(r1)
     a18:	48 00 00 01 	bl      a18 <ApcInitNode+0x2d4>
     a1c:	2f 83 00 00 	cmpwi   cr7,r3,0
     a20:	40 9e 09 9c 	bne-    cr7,13bc <ApcInitNode+0xc78>
     a24:	38 00 00 18 	li      r0,24
     a28:	39 60 00 00 	li      r11,0
     a2c:	38 61 00 e0 	addi    r3,r1,224
     a30:	90 01 00 e0 	stw     r0,224(r1)
     a34:	91 61 00 e4 	stw     r11,228(r1)
     a38:	90 01 00 10 	stw     r0,16(r1)
     a3c:	91 61 00 14 	stw     r11,20(r1)
     a40:	48 00 00 01 	bl      a40 <ApcInitNode+0x2fc>
     a44:	2c 03 00 00 	cmpwi   r3,0
     a48:	40 82 09 48 	bne-    1390 <ApcInitNode+0xc4c>
     a4c:	38 a0 00 19 	li      r5,25
     a50:	38 80 00 00 	li      r4,0
     a54:	38 61 00 f0 	addi    r3,r1,240
     a58:	90 a1 00 f0 	stw     r5,240(r1)
     a5c:	90 81 00 f4 	stw     r4,244(r1)
     a60:	90 a1 00 10 	stw     r5,16(r1)
     a64:	90 81 00 14 	stw     r4,20(r1)
     a68:	48 00 00 01 	bl      a68 <ApcInitNode+0x324>
     a6c:	2c 83 00 00 	cmpwi   cr1,r3,0
     a70:	40 86 08 f4 	bne-    cr1,1364 <ApcInitNode+0xc20>
     a74:	38 00 00 1a 	li      r0,26
     a78:	39 80 00 00 	li      r12,0
     a7c:	38 61 01 00 	addi    r3,r1,256
     a80:	90 01 01 00 	stw     r0,256(r1)
     a84:	91 81 01 04 	stw     r12,260(r1)
     a88:	90 01 00 10 	stw     r0,16(r1)
     a8c:	91 81 00 14 	stw     r12,20(r1)
     a90:	48 00 00 01 	bl      a90 <ApcInitNode+0x34c>
     a94:	2f 03 00 00 	cmpwi   cr6,r3,0
     a98:	40 9a 08 a0 	bne-    cr6,1338 <ApcInitNode+0xbf4>
     a9c:	38 e0 00 1b 	li      r7,27
     aa0:	38 80 00 00 	li      r4,0
     aa4:	38 61 01 10 	addi    r3,r1,272
     aa8:	90 e1 01 10 	stw     r7,272(r1)
     aac:	90 81 01 14 	stw     r4,276(r1)
     ab0:	90 e1 00 10 	stw     r7,16(r1)
     ab4:	90 81 00 14 	stw     r4,20(r1)
     ab8:	48 00 00 01 	bl      ab8 <ApcInitNode+0x374>
     abc:	2f 83 00 00 	cmpwi   cr7,r3,0
     ac0:	40 9e 08 4c 	bne-    cr7,130c <ApcInitNode+0xbc8>
     ac4:	38 00 00 1c 	li      r0,28
     ac8:	3b e0 00 00 	li      r31,0
     acc:	38 61 01 20 	addi    r3,r1,288
     ad0:	90 01 01 20 	stw     r0,288(r1)
     ad4:	93 e1 01 24 	stw     r31,292(r1)
     ad8:	90 01 00 10 	stw     r0,16(r1)
     adc:	93 e1 00 14 	stw     r31,20(r1)
     ae0:	48 00 00 01 	bl      ae0 <ApcInitNode+0x39c>
     ae4:	2c 03 00 00 	cmpwi   r3,0
     ae8:	40 82 07 f8 	bne-    12e0 <ApcInitNode+0xb9c>
     aec:	39 60 00 1d 	li      r11,29
     af0:	38 80 00 00 	li      r4,0
     af4:	38 61 01 30 	addi    r3,r1,304
     af8:	91 61 01 30 	stw     r11,304(r1)
     afc:	90 81 01 34 	stw     r4,308(r1)
     b00:	91 61 00 10 	stw     r11,16(r1)
     b04:	90 81 00 14 	stw     r4,20(r1)
     b08:	48 00 00 01 	bl      b08 <ApcInitNode+0x3c4>
     b0c:	2c 83 00 00 	cmpwi   cr1,r3,0
     b10:	40 86 07 a4 	bne-    cr1,12b4 <ApcInitNode+0xb70>
     b14:	38 00 00 1e 	li      r0,30
     b18:	38 a0 00 00 	li      r5,0
     b1c:	38 61 01 40 	addi    r3,r1,320
     b20:	90 01 01 40 	stw     r0,320(r1)
     b24:	90 a1 01 44 	stw     r5,324(r1)
     b28:	90 01 00 10 	stw     r0,16(r1)
     b2c:	90 a1 00 14 	stw     r5,20(r1)
     b30:	48 00 00 01 	bl      b30 <ApcInitNode+0x3ec>
     b34:	2f 03 00 00 	cmpwi   cr6,r3,0
     b38:	40 9a 07 50 	bne-    cr6,1288 <ApcInitNode+0xb44>
     b3c:	39 80 00 1f 	li      r12,31
     b40:	38 80 00 00 	li      r4,0
     b44:	38 61 01 50 	addi    r3,r1,336
     b48:	91 81 01 50 	stw     r12,336(r1)
     b4c:	90 81 01 54 	stw     r4,340(r1)
     b50:	91 81 00 10 	stw     r12,16(r1)
     b54:	90 81 00 14 	stw     r4,20(r1)
     b58:	48 00 00 01 	bl      b58 <ApcInitNode+0x414>
     b5c:	2f 83 00 00 	cmpwi   cr7,r3,0
     b60:	40 9e 06 fc 	bne-    cr7,125c <ApcInitNode+0xb18>
     b64:	38 00 00 20 	li      r0,32
     b68:	38 e0 00 00 	li      r7,0
     b6c:	38 61 01 60 	addi    r3,r1,352
     b70:	90 01 01 60 	stw     r0,352(r1)
     b74:	90 e1 01 64 	stw     r7,356(r1)
     b78:	90 01 00 10 	stw     r0,16(r1)
     b7c:	90 e1 00 14 	stw     r7,20(r1)
     b80:	48 00 00 01 	bl      b80 <ApcInitNode+0x43c>
     b84:	2c 03 00 00 	cmpwi   r3,0
     b88:	40 82 06 a8 	bne-    1230 <ApcInitNode+0xaec>
     b8c:	3b e0 00 21 	li      r31,33
     b90:	38 80 00 00 	li      r4,0
     b94:	38 61 01 70 	addi    r3,r1,368
     b98:	93 e1 01 70 	stw     r31,368(r1)
     b9c:	90 81 01 74 	stw     r4,372(r1)
     ba0:	93 e1 00 10 	stw     r31,16(r1)
     ba4:	90 81 00 14 	stw     r4,20(r1)
     ba8:	48 00 00 01 	bl      ba8 <ApcInitNode+0x464>
     bac:	2c 83 00 00 	cmpwi   cr1,r3,0
     bb0:	40 86 06 54 	bne-    cr1,1204 <ApcInitNode+0xac0>
     bb4:	38 00 00 22 	li      r0,34
     bb8:	39 60 00 00 	li      r11,0
     bbc:	38 61 01 80 	addi    r3,r1,384
     bc0:	90 01 01 80 	stw     r0,384(r1)
     bc4:	91 61 01 84 	stw     r11,388(r1)
     bc8:	90 01 00 10 	stw     r0,16(r1)
     bcc:	91 61 00 14 	stw     r11,20(r1)
     bd0:	48 00 00 01 	bl      bd0 <ApcInitNode+0x48c>
     bd4:	2f 03 00 00 	cmpwi   cr6,r3,0
     bd8:	40 9a 06 00 	bne-    cr6,11d8 <ApcInitNode+0xa94>
     bdc:	38 a0 00 23 	li      r5,35
     be0:	38 80 00 00 	li      r4,0
     be4:	38 61 01 90 	addi    r3,r1,400
     be8:	90 a1 01 90 	stw     r5,400(r1)
     bec:	90 81 01 94 	stw     r4,404(r1)
     bf0:	90 a1 00 10 	stw     r5,16(r1)
     bf4:	90 81 00 14 	stw     r4,20(r1)
     bf8:	48 00 00 01 	bl      bf8 <ApcInitNode+0x4b4>
     bfc:	2f 83 00 00 	cmpwi   cr7,r3,0
     c00:	40 9e 05 ac 	bne-    cr7,11ac <ApcInitNode+0xa68>
     c04:	38 00 00 24 	li      r0,36
     c08:	39 80 00 00 	li      r12,0
     c0c:	38 61 01 a0 	addi    r3,r1,416
     c10:	90 01 01 a0 	stw     r0,416(r1)
     c14:	91 81 01 a4 	stw     r12,420(r1)
     c18:	90 01 00 10 	stw     r0,16(r1)
     c1c:	91 81 00 14 	stw     r12,20(r1)
     c20:	48 00 00 01 	bl      c20 <ApcInitNode+0x4dc>
     c24:	2c 03 00 00 	cmpwi   r3,0
     c28:	40 82 05 58 	bne-    1180 <ApcInitNode+0xa3c>
     c2c:	38 e0 00 25 	li      r7,37
     c30:	38 80 00 00 	li      r4,0
     c34:	38 61 01 b0 	addi    r3,r1,432
     c38:	90 e1 01 b0 	stw     r7,432(r1)
     c3c:	90 81 01 b4 	stw     r4,436(r1)
     c40:	90 e1 00 10 	stw     r7,16(r1)
     c44:	90 81 00 14 	stw     r4,20(r1)
     c48:	48 00 00 01 	bl      c48 <ApcInitNode+0x504>
     c4c:	2c 83 00 00 	cmpwi   cr1,r3,0
     c50:	40 86 05 04 	bne-    cr1,1154 <ApcInitNode+0xa10>
     c54:	38 00 00 26 	li      r0,38
     c58:	3b e0 00 00 	li      r31,0
     c5c:	38 61 01 c0 	addi    r3,r1,448
     c60:	90 01 01 c0 	stw     r0,448(r1)
     c64:	93 e1 01 c4 	stw     r31,452(r1)
     c68:	90 01 00 10 	stw     r0,16(r1)
     c6c:	93 e1 00 14 	stw     r31,20(r1)
     c70:	48 00 00 01 	bl      c70 <ApcInitNode+0x52c>
     c74:	2f 03 00 00 	cmpwi   cr6,r3,0
     c78:	40 9a 04 b0 	bne-    cr6,1128 <ApcInitNode+0x9e4>
     c7c:	39 60 00 27 	li      r11,39
     c80:	38 80 00 00 	li      r4,0
     c84:	38 61 01 d0 	addi    r3,r1,464
     c88:	91 61 01 d0 	stw     r11,464(r1)
     c8c:	90 81 01 d4 	stw     r4,468(r1)
     c90:	91 61 00 10 	stw     r11,16(r1)
     c94:	90 81 00 14 	stw     r4,20(r1)
     c98:	48 00 00 01 	bl      c98 <ApcInitNode+0x554>
     c9c:	2f 83 00 00 	cmpwi   cr7,r3,0
     ca0:	40 9e 04 5c 	bne-    cr7,10fc <ApcInitNode+0x9b8>
     ca4:	38 00 00 28 	li      r0,40
     ca8:	3b e0 00 00 	li      r31,0
     cac:	38 61 01 e0 	addi    r3,r1,480
     cb0:	90 01 01 e0 	stw     r0,480(r1)
     cb4:	90 01 00 10 	stw     r0,16(r1)
     cb8:	93 e1 00 14 	stw     r31,20(r1)
     cbc:	93 e1 01 e4 	stw     r31,484(r1)
     cc0:	48 00 00 01 	bl      cc0 <ApcInitNode+0x57c>
     cc4:	2c 03 00 00 	cmpwi   r3,0
     cc8:	40 82 04 08 	bne-    10d0 <ApcInitNode+0x98c>
     ccc:	38 80 00 29 	li      r4,41
     cd0:	38 61 01 f0 	addi    r3,r1,496
     cd4:	90 81 01 f0 	stw     r4,496(r1)
     cd8:	90 81 00 10 	stw     r4,16(r1)
     cdc:	93 e1 00 14 	stw     r31,20(r1)
     ce0:	93 e1 01 f4 	stw     r31,500(r1)
     ce4:	48 00 00 01 	bl      ce4 <ApcInitNode+0x5a0>
     ce8:	2c 83 00 00 	cmpwi   cr1,r3,0
     cec:	40 86 03 b8 	bne-    cr1,10a4 <ApcInitNode+0x960>
     cf0:	38 00 00 2a 	li      r0,42
     cf4:	38 61 02 00 	addi    r3,r1,512
     cf8:	90 01 02 00 	stw     r0,512(r1)
     cfc:	90 01 00 10 	stw     r0,16(r1)
     d00:	93 e1 00 14 	stw     r31,20(r1)
     d04:	93 e1 02 04 	stw     r31,516(r1)
     d08:	48 00 00 01 	bl      d08 <ApcInitNode+0x5c4>
     d0c:	2f 03 00 00 	cmpwi   cr6,r3,0
     d10:	40 9a 03 68 	bne-    cr6,1078 <ApcInitNode+0x934>
     d14:	38 80 00 2b 	li      r4,43
     d18:	38 61 02 10 	addi    r3,r1,528
     d1c:	90 81 02 10 	stw     r4,528(r1)
     d20:	90 81 00 10 	stw     r4,16(r1)
     d24:	93 e1 00 14 	stw     r31,20(r1)
     d28:	93 e1 02 14 	stw     r31,532(r1)
     d2c:	48 00 00 01 	bl      d2c <ApcInitNode+0x5e8>
     d30:	2f 83 00 00 	cmpwi   cr7,r3,0
     d34:	40 9e 03 18 	bne-    cr7,104c <ApcInitNode+0x908>
     d38:	38 00 01 05 	li      r0,261
     d3c:	38 61 02 20 	addi    r3,r1,544
     d40:	90 01 02 20 	stw     r0,544(r1)
     d44:	90 01 00 10 	stw     r0,16(r1)
     d48:	93 e1 00 14 	stw     r31,20(r1)
     d4c:	93 e1 02 24 	stw     r31,548(r1)
     d50:	48 00 00 01 	bl      d50 <ApcInitNode+0x60c>
     d54:	2c 03 00 00 	cmpwi   r3,0
     d58:	40 82 02 c8 	bne-    1020 <ApcInitNode+0x8dc>
     d5c:	38 80 01 11 	li      r4,273
     d60:	38 61 02 30 	addi    r3,r1,560
     d64:	90 81 02 30 	stw     r4,560(r1)
     d68:	90 81 00 10 	stw     r4,16(r1)
     d6c:	93 e1 00 14 	stw     r31,20(r1)
     d70:	93 e1 02 34 	stw     r31,564(r1)
     d74:	48 00 00 01 	bl      d74 <ApcInitNode+0x630>
     d78:	2c 83 00 00 	cmpwi   cr1,r3,0
     d7c:	40 86 02 78 	bne-    cr1,ff4 <ApcInitNode+0x8b0>
     d80:	38 00 01 1d 	li      r0,285
     d84:	38 61 02 40 	addi    r3,r1,576
     d88:	90 01 02 40 	stw     r0,576(r1)
     d8c:	90 01 00 10 	stw     r0,16(r1)
     d90:	93 e1 00 14 	stw     r31,20(r1)
     d94:	93 e1 02 44 	stw     r31,580(r1)
     d98:	48 00 00 01 	bl      d98 <ApcInitNode+0x654>
     d9c:	2f 03 00 00 	cmpwi   cr6,r3,0
     da0:	40 9a 02 28 	bne-    cr6,fc8 <ApcInitNode+0x884>
     da4:	38 80 01 29 	li      r4,297
     da8:	38 61 02 50 	addi    r3,r1,592
     dac:	90 81 02 50 	stw     r4,592(r1)
     db0:	90 81 00 10 	stw     r4,16(r1)
     db4:	93 e1 00 14 	stw     r31,20(r1)
     db8:	93 e1 02 54 	stw     r31,596(r1)
     dbc:	48 00 00 01 	bl      dbc <ApcInitNode+0x678>
     dc0:	2f 83 00 00 	cmpwi   cr7,r3,0
     dc4:	40 9e 01 d8 	bne-    cr7,f9c <ApcInitNode+0x858>
     dc8:	38 00 01 35 	li      r0,309
     dcc:	38 61 02 60 	addi    r3,r1,608
     dd0:	90 01 02 60 	stw     r0,608(r1)
     dd4:	90 01 00 10 	stw     r0,16(r1)
     dd8:	93 e1 00 14 	stw     r31,20(r1)
     ddc:	93 e1 02 64 	stw     r31,612(r1)
     de0:	48 00 00 01 	bl      de0 <ApcInitNode+0x69c>
     de4:	2c 03 00 00 	cmpwi   r3,0
     de8:	40 82 01 88 	bne-    f70 <ApcInitNode+0x82c>
     dec:	38 80 01 41 	li      r4,321
     df0:	38 61 02 70 	addi    r3,r1,624
     df4:	90 81 02 70 	stw     r4,624(r1)
     df8:	93 e1 02 74 	stw     r31,628(r1)
     dfc:	90 81 00 10 	stw     r4,16(r1)
     e00:	93 e1 00 14 	stw     r31,20(r1)
     e04:	48 00 00 01 	bl      e04 <ApcInitNode+0x6c0>
     e08:	2c 83 00 00 	cmpwi   cr1,r3,0
     e0c:	40 86 01 38 	bne-    cr1,f44 <ApcInitNode+0x800>
     e10:	38 00 01 47 	li      r0,327
     e14:	39 20 00 03 	li      r9,3
     e18:	38 61 02 80 	addi    r3,r1,640
     e1c:	90 01 02 80 	stw     r0,640(r1)
     e20:	91 21 02 84 	stw     r9,644(r1)
     e24:	90 01 00 10 	stw     r0,16(r1)
     e28:	91 21 00 14 	stw     r9,20(r1)
     e2c:	48 00 00 01 	bl      e2c <ApcInitNode+0x6e8>
     e30:	2f 83 00 00 	cmpwi   cr7,r3,0
     e34:	40 9e 00 e4 	bne-    cr7,f18 <ApcInitNode+0x7d4>
     e38:	48 00 00 01 	bl      e38 <ApcInitNode+0x6f4>
     e3c:	2c 03 00 00 	cmpwi   r3,0
     e40:	40 82 5e e4 	bne-    6d24 <ApcInitNode+0x65e0>
     e44:	3f e0 00 00 	lis     r31,0
     e48:	38 80 00 01 	li      r4,1
     e4c:	80 1f 00 0c 	lwz     r0,12(r31)
     e50:	90 9e 00 00 	stw     r4,0(r30)
     e54:	2c 80 00 00 	cmpwi   cr1,r0,0
     e58:	41 86 00 24 	beq-    cr1,e7c <ApcInitNode+0x738>
     e5c:	3c e0 00 00 	lis     r7,0
     e60:	81 27 00 10 	lwz     r9,16(r7)
     e64:	7c 00 04 ac 	msync
     e68:	90 69 00 08 	stw     r3,8(r9)
     e6c:	81 09 00 08 	lwz     r8,8(r9)
     e70:	2f 08 00 00 	cmpwi   cr6,r8,0
     e74:	40 9a ff f8 	bne+    cr6,e6c <ApcInitNode+0x728>
     e78:	7c 00 04 ac 	msync
     e7c:	81 3e 00 00 	lwz     r9,0(r30)
     e80:	2f 89 00 00 	cmpwi   cr7,r9,0
     e84:	41 9e 00 40 	beq-    cr7,ec4 <ApcInitNode+0x780>
     e88:	3b fd 00 00 	addi    r31,r29,0
     e8c:	83 df 00 04 	lwz     r30,4(r31)
     e90:	2c 1e 00 01 	cmpwi   r30,1
     e94:	41 82 00 4c 	beq-    ee0 <ApcInitNode+0x79c>
     e98:	39 80 00 01 	li      r12,1
     e9c:	3c c0 00 00 	lis     r6,0
     ea0:	3c a0 00 00 	lis     r5,0
     ea4:	38 66 00 10 	addi    r3,r6,16
     ea8:	38 80 01 a0 	li      r4,416
     eac:	91 9f 00 04 	stw     r12,4(r31)
     eb0:	91 85 00 00 	stw     r12,0(r5)
     eb4:	48 00 00 01 	bl      eb4 <ApcInitNode+0x770>
     eb8:	48 00 00 01 	bl      eb8 <ApcInitNode+0x774>
     ebc:	90 7f 00 08 	stw     r3,8(r31)
     ec0:	90 9f 00 0c 	stw     r4,12(r31)
     ec4:	80 61 1d e4 	lwz     r3,7652(r1)
     ec8:	83 a1 1d d4 	lwz     r29,7636(r1)
     ecc:	83 c1 1d d8 	lwz     r30,7640(r1)
     ed0:	7c 68 03 a6 	mtlr    r3
     ed4:	83 e1 1d dc 	lwz     r31,7644(r1)
     ed8:	38 21 1d e0 	addi    r1,r1,7648
     edc:	4e 80 00 20 	blr
     ee0:	3d 40 00 00 	lis     r10,0
     ee4:	3d 60 00 00 	lis     r11,0
     ee8:	80 ca 00 00 	lwz     r6,0(r10)
     eec:	38 6b 4d 18 	addi    r3,r11,19736
     ef0:	38 80 00 01 	li      r4,1
     ef4:	38 a0 00 1d 	li      r5,29
     ef8:	48 00 00 01 	bl      ef8 <ApcInitNode+0x7b4>
     efc:	80 61 1d e4 	lwz     r3,7652(r1)
     f00:	83 a1 1d d4 	lwz     r29,7636(r1)
     f04:	83 c1 1d d8 	lwz     r30,7640(r1)
     f08:	7c 68 03 a6 	mtlr    r3
     f0c:	83 e1 1d dc 	lwz     r31,7644(r1)
     f10:	38 21 1d e0 	addi    r1,r1,7648
     f14:	4e 80 00 20 	blr
     f18:	80 81 00 10 	lwz     r4,16(r1)
     f1c:	3c 60 00 00 	lis     r3,0
     f20:	38 c3 00 00 	addi    r6,r3,0
     f24:	3d 40 00 00 	lis     r10,0
     f28:	1c a4 00 60 	mulli   r5,r4,96
     f2c:	38 6a 4d 64 	addi    r3,r10,19812
     f30:	7d 85 32 14 	add     r12,r5,r6
     f34:	80 ac 00 58 	lwz     r5,88(r12)
     f38:	4c c6 31 82 	crclr   4*cr1+eq
     f3c:	48 00 00 01 	bl      f3c <ApcInitNode+0x7f8>
     f40:	4b ff fe f8 	b       e38 <ApcInitNode+0x6f4>
     f44:	80 81 00 10 	lwz     r4,16(r1)
     f48:	3d 60 00 00 	lis     r11,0
     f4c:	39 2b 00 00 	addi    r9,r11,0
     f50:	3f e0 00 00 	lis     r31,0
     f54:	1d 04 00 60 	mulli   r8,r4,96
     f58:	38 7f 4d 64 	addi    r3,r31,19812
     f5c:	7c e8 4a 14 	add     r7,r8,r9
     f60:	80 a7 00 58 	lwz     r5,88(r7)
     f64:	4c c6 31 82 	crclr   4*cr1+eq
     f68:	48 00 00 01 	bl      f68 <ApcInitNode+0x824>
     f6c:	4b ff fe a4 	b       e10 <ApcInitNode+0x6cc>
     f70:	80 81 00 10 	lwz     r4,16(r1)
     f74:	3c 60 00 00 	lis     r3,0
     f78:	38 c3 00 00 	addi    r6,r3,0
     f7c:	3d 40 00 00 	lis     r10,0
     f80:	1c a4 00 60 	mulli   r5,r4,96
     f84:	38 6a 4d 64 	addi    r3,r10,19812
     f88:	7d 85 32 14 	add     r12,r5,r6
     f8c:	80 ac 00 58 	lwz     r5,88(r12)
     f90:	4c c6 31 82 	crclr   4*cr1+eq
     f94:	48 00 00 01 	bl      f94 <ApcInitNode+0x850>
     f98:	4b ff fe 54 	b       dec <ApcInitNode+0x6a8>
     f9c:	80 81 00 10 	lwz     r4,16(r1)
     fa0:	3d 60 00 00 	lis     r11,0
     fa4:	39 2b 00 00 	addi    r9,r11,0
     fa8:	3c 60 00 00 	lis     r3,0
     fac:	1d 04 00 60 	mulli   r8,r4,96
     fb0:	38 63 4d 64 	addi    r3,r3,19812
     fb4:	7c e8 4a 14 	add     r7,r8,r9
     fb8:	80 a7 00 58 	lwz     r5,88(r7)
     fbc:	4c c6 31 82 	crclr   4*cr1+eq
     fc0:	48 00 00 01 	bl      fc0 <ApcInitNode+0x87c>
     fc4:	4b ff fe 04 	b       dc8 <ApcInitNode+0x684>
     fc8:	80 81 00 10 	lwz     r4,16(r1)
     fcc:	3c c0 00 00 	lis     r6,0
     fd0:	39 86 00 00 	addi    r12,r6,0
     fd4:	3d 60 00 00 	lis     r11,0
     fd8:	1c a4 00 60 	mulli   r5,r4,96
     fdc:	38 6b 4d 64 	addi    r3,r11,19812
     fe0:	7d 45 62 14 	add     r10,r5,r12
     fe4:	80 aa 00 58 	lwz     r5,88(r10)
     fe8:	4c c6 31 82 	crclr   4*cr1+eq
     fec:	48 00 00 01 	bl      fec <ApcInitNode+0x8a8>
     ff0:	4b ff fd b4 	b       da4 <ApcInitNode+0x660>
     ff4:	80 81 00 10 	lwz     r4,16(r1)
     ff8:	3d 00 00 00 	lis     r8,0
     ffc:	39 28 00 00 	addi    r9,r8,0
    1000:	3c c0 00 00 	lis     r6,0
    1004:	1c e4 00 60 	mulli   r7,r4,96
    1008:	7c 67 4a 14 	add     r3,r7,r9
    100c:	80 a3 00 58 	lwz     r5,88(r3)
    1010:	38 66 4d 64 	addi    r3,r6,19812
    1014:	4c c6 31 82 	crclr   4*cr1+eq
    1018:	48 00 00 01 	bl      1018 <ApcInitNode+0x8d4>
    101c:	4b ff fd 64 	b       d80 <ApcInitNode+0x63c>
    1020:	80 81 00 10 	lwz     r4,16(r1)
    1024:	3d 80 00 00 	lis     r12,0
    1028:	39 4c 00 00 	addi    r10,r12,0
    102c:	3d 00 00 00 	lis     r8,0
    1030:	1c a4 00 60 	mulli   r5,r4,96
    1034:	38 68 4d 64 	addi    r3,r8,19812
    1038:	7d 65 52 14 	add     r11,r5,r10
    103c:	80 ab 00 58 	lwz     r5,88(r11)
    1040:	4c c6 31 82 	crclr   4*cr1+eq
    1044:	48 00 00 01 	bl      1044 <ApcInitNode+0x900>
    1048:	4b ff fd 14 	b       d5c <ApcInitNode+0x618>
    104c:	80 81 00 10 	lwz     r4,16(r1)
    1050:	3c e0 00 00 	lis     r7,0
    1054:	39 27 00 00 	addi    r9,r7,0
    1058:	3d 80 00 00 	lis     r12,0
    105c:	1c 64 00 60 	mulli   r3,r4,96
    1060:	7c c3 4a 14 	add     r6,r3,r9
    1064:	38 6c 4d 64 	addi    r3,r12,19812
    1068:	80 a6 00 58 	lwz     r5,88(r6)
    106c:	4c c6 31 82 	crclr   4*cr1+eq
    1070:	48 00 00 01 	bl      1070 <ApcInitNode+0x92c>
    1074:	4b ff fc c4 	b       d38 <ApcInitNode+0x5f4>
    1078:	80 81 00 10 	lwz     r4,16(r1)
    107c:	3d 40 00 00 	lis     r10,0
    1080:	39 6a 00 00 	addi    r11,r10,0
    1084:	3c e0 00 00 	lis     r7,0
    1088:	1c a4 00 60 	mulli   r5,r4,96
    108c:	38 67 4d 64 	addi    r3,r7,19812
    1090:	7d 05 5a 14 	add     r8,r5,r11
    1094:	80 a8 00 58 	lwz     r5,88(r8)
    1098:	4c c6 31 82 	crclr   4*cr1+eq
    109c:	48 00 00 01 	bl      109c <ApcInitNode+0x958>
    10a0:	4b ff fc 74 	b       d14 <ApcInitNode+0x5d0>
    10a4:	80 81 00 10 	lwz     r4,16(r1)
    10a8:	3c 60 00 00 	lis     r3,0
    10ac:	39 23 00 00 	addi    r9,r3,0
    10b0:	3d 40 00 00 	lis     r10,0
    10b4:	1c c4 00 60 	mulli   r6,r4,96
    10b8:	38 6a 4d 64 	addi    r3,r10,19812
    10bc:	7d 86 4a 14 	add     r12,r6,r9
    10c0:	80 ac 00 58 	lwz     r5,88(r12)
    10c4:	4c c6 31 82 	crclr   4*cr1+eq
    10c8:	48 00 00 01 	bl      10c8 <ApcInitNode+0x984>
    10cc:	4b ff fc 24 	b       cf0 <ApcInitNode+0x5ac>
    10d0:	80 81 00 10 	lwz     r4,16(r1)
    10d4:	3d 60 00 00 	lis     r11,0
    10d8:	39 0b 00 00 	addi    r8,r11,0
    10dc:	3c 60 00 00 	lis     r3,0
    10e0:	1c a4 00 60 	mulli   r5,r4,96
    10e4:	38 63 4d 64 	addi    r3,r3,19812
    10e8:	7c e5 42 14 	add     r7,r5,r8
    10ec:	80 a7 00 58 	lwz     r5,88(r7)
    10f0:	4c c6 31 82 	crclr   4*cr1+eq
    10f4:	48 00 00 01 	bl      10f4 <ApcInitNode+0x9b0>
    10f8:	4b ff fb d4 	b       ccc <ApcInitNode+0x588>
    10fc:	80 81 00 10 	lwz     r4,16(r1)
    1100:	3d 20 00 00 	lis     r9,0
    1104:	3b e9 00 00 	addi    r31,r9,0
    1108:	3d 40 00 00 	lis     r10,0
    110c:	1c c4 00 60 	mulli   r6,r4,96
    1110:	38 6a 4d 64 	addi    r3,r10,19812
    1114:	7d 86 fa 14 	add     r12,r6,r31
    1118:	80 ac 00 58 	lwz     r5,88(r12)
    111c:	4c c6 31 82 	crclr   4*cr1+eq
    1120:	48 00 00 01 	bl      1120 <ApcInitNode+0x9dc>
    1124:	4b ff fb 80 	b       ca4 <ApcInitNode+0x560>
    1128:	80 81 00 10 	lwz     r4,16(r1)
    112c:	3d 00 00 00 	lis     r8,0
    1130:	38 e8 00 00 	addi    r7,r8,0
    1134:	3d 20 00 00 	lis     r9,0
    1138:	1c a4 00 60 	mulli   r5,r4,96
    113c:	7c 65 3a 14 	add     r3,r5,r7
    1140:	80 a3 00 58 	lwz     r5,88(r3)
    1144:	38 69 4d 64 	addi    r3,r9,19812
    1148:	4c c6 31 82 	crclr   4*cr1+eq
    114c:	48 00 00 01 	bl      114c <ApcInitNode+0xa08>
    1150:	4b ff fb 2c 	b       c7c <ApcInitNode+0x538>
    1154:	80 81 00 10 	lwz     r4,16(r1)
    1158:	3c c0 00 00 	lis     r6,0
    115c:	39 86 00 00 	addi    r12,r6,0
    1160:	3d 00 00 00 	lis     r8,0
    1164:	1d 44 00 60 	mulli   r10,r4,96
    1168:	38 68 4d 64 	addi    r3,r8,19812
    116c:	7d 6a 62 14 	add     r11,r10,r12
    1170:	80 ab 00 58 	lwz     r5,88(r11)
    1174:	4c c6 31 82 	crclr   4*cr1+eq
    1178:	48 00 00 01 	bl      1178 <ApcInitNode+0xa34>
    117c:	4b ff fa d8 	b       c54 <ApcInitNode+0x510>
    1180:	80 81 00 10 	lwz     r4,16(r1)
    1184:	3c 60 00 00 	lis     r3,0
    1188:	39 23 00 00 	addi    r9,r3,0
    118c:	3c c0 00 00 	lis     r6,0
    1190:	1c a4 00 60 	mulli   r5,r4,96
    1194:	38 66 4d 64 	addi    r3,r6,19812
    1198:	7f e5 4a 14 	add     r31,r5,r9
    119c:	80 bf 00 58 	lwz     r5,88(r31)
    11a0:	4c c6 31 82 	crclr   4*cr1+eq
    11a4:	48 00 00 01 	bl      11a4 <ApcInitNode+0xa60>
    11a8:	4b ff fa 84 	b       c2c <ApcInitNode+0x4e8>
    11ac:	80 81 00 10 	lwz     r4,16(r1)
    11b0:	3d 40 00 00 	lis     r10,0
    11b4:	39 6a 00 00 	addi    r11,r10,0
    11b8:	3c 60 00 00 	lis     r3,0
    11bc:	1d 04 00 60 	mulli   r8,r4,96
    11c0:	38 63 4d 64 	addi    r3,r3,19812
    11c4:	7c e8 5a 14 	add     r7,r8,r11
    11c8:	80 a7 00 58 	lwz     r5,88(r7)
    11cc:	4c c6 31 82 	crclr   4*cr1+eq
    11d0:	48 00 00 01 	bl      11d0 <ApcInitNode+0xa8c>
    11d4:	4b ff fa 30 	b       c04 <ApcInitNode+0x4c0>
    11d8:	80 81 00 10 	lwz     r4,16(r1)
    11dc:	3d 20 00 00 	lis     r9,0
    11e0:	3b e9 00 00 	addi    r31,r9,0
    11e4:	3d 40 00 00 	lis     r10,0
    11e8:	1c c4 00 60 	mulli   r6,r4,96
    11ec:	38 6a 4d 64 	addi    r3,r10,19812
    11f0:	7d 86 fa 14 	add     r12,r6,r31
    11f4:	80 ac 00 58 	lwz     r5,88(r12)
    11f8:	4c c6 31 82 	crclr   4*cr1+eq
    11fc:	48 00 00 01 	bl      11fc <ApcInitNode+0xab8>
    1200:	4b ff f9 dc 	b       bdc <ApcInitNode+0x498>
    1204:	80 81 00 10 	lwz     r4,16(r1)
    1208:	3d 00 00 00 	lis     r8,0
    120c:	38 e8 00 00 	addi    r7,r8,0
    1210:	3d 20 00 00 	lis     r9,0
    1214:	1c a4 00 60 	mulli   r5,r4,96
    1218:	7c 65 3a 14 	add     r3,r5,r7
    121c:	80 a3 00 58 	lwz     r5,88(r3)
    1220:	38 69 4d 64 	addi    r3,r9,19812
    1224:	4c c6 31 82 	crclr   4*cr1+eq
    1228:	48 00 00 01 	bl      1228 <ApcInitNode+0xae4>
    122c:	4b ff f9 88 	b       bb4 <ApcInitNode+0x470>
    1230:	80 81 00 10 	lwz     r4,16(r1)
    1234:	3c c0 00 00 	lis     r6,0
    1238:	39 86 00 00 	addi    r12,r6,0
    123c:	3d 00 00 00 	lis     r8,0
    1240:	1d 44 00 60 	mulli   r10,r4,96
    1244:	38 68 4d 64 	addi    r3,r8,19812
    1248:	7d 6a 62 14 	add     r11,r10,r12
    124c:	80 ab 00 58 	lwz     r5,88(r11)
    1250:	4c c6 31 82 	crclr   4*cr1+eq
    1254:	48 00 00 01 	bl      1254 <ApcInitNode+0xb10>
    1258:	4b ff f9 34 	b       b8c <ApcInitNode+0x448>
    125c:	80 81 00 10 	lwz     r4,16(r1)
    1260:	3c 60 00 00 	lis     r3,0
    1264:	39 23 00 00 	addi    r9,r3,0
    1268:	3c c0 00 00 	lis     r6,0
    126c:	1c a4 00 60 	mulli   r5,r4,96
    1270:	38 66 4d 64 	addi    r3,r6,19812
    1274:	7f e5 4a 14 	add     r31,r5,r9
    1278:	80 bf 00 58 	lwz     r5,88(r31)
    127c:	4c c6 31 82 	crclr   4*cr1+eq
    1280:	48 00 00 01 	bl      1280 <ApcInitNode+0xb3c>
    1284:	4b ff f8 e0 	b       b64 <ApcInitNode+0x420>
    1288:	80 81 00 10 	lwz     r4,16(r1)
    128c:	3d 40 00 00 	lis     r10,0
    1290:	39 6a 00 00 	addi    r11,r10,0
    1294:	3c 60 00 00 	lis     r3,0
    1298:	1d 04 00 60 	mulli   r8,r4,96
    129c:	38 63 4d 64 	addi    r3,r3,19812
    12a0:	7c e8 5a 14 	add     r7,r8,r11
    12a4:	80 a7 00 58 	lwz     r5,88(r7)
    12a8:	4c c6 31 82 	crclr   4*cr1+eq
    12ac:	48 00 00 01 	bl      12ac <ApcInitNode+0xb68>
    12b0:	4b ff f8 8c 	b       b3c <ApcInitNode+0x3f8>
    12b4:	80 81 00 10 	lwz     r4,16(r1)
    12b8:	3d 20 00 00 	lis     r9,0
    12bc:	3b e9 00 00 	addi    r31,r9,0
    12c0:	3d 40 00 00 	lis     r10,0
    12c4:	1c c4 00 60 	mulli   r6,r4,96
    12c8:	38 6a 4d 64 	addi    r3,r10,19812
    12cc:	7d 86 fa 14 	add     r12,r6,r31
    12d0:	80 ac 00 58 	lwz     r5,88(r12)
    12d4:	4c c6 31 82 	crclr   4*cr1+eq
    12d8:	48 00 00 01 	bl      12d8 <ApcInitNode+0xb94>
    12dc:	4b ff f8 38 	b       b14 <ApcInitNode+0x3d0>
    12e0:	80 81 00 10 	lwz     r4,16(r1)
    12e4:	3d 00 00 00 	lis     r8,0
    12e8:	38 e8 00 00 	addi    r7,r8,0
    12ec:	3d 20 00 00 	lis     r9,0
    12f0:	1c a4 00 60 	mulli   r5,r4,96
    12f4:	7c 65 3a 14 	add     r3,r5,r7
    12f8:	80 a3 00 58 	lwz     r5,88(r3)
    12fc:	38 69 4d 64 	addi    r3,r9,19812
    1300:	4c c6 31 82 	crclr   4*cr1+eq
    1304:	48 00 00 01 	bl      1304 <ApcInitNode+0xbc0>
    1308:	4b ff f7 e4 	b       aec <ApcInitNode+0x3a8>
    130c:	80 81 00 10 	lwz     r4,16(r1)
    1310:	3c c0 00 00 	lis     r6,0
    1314:	39 86 00 00 	addi    r12,r6,0
    1318:	3d 00 00 00 	lis     r8,0
    131c:	1d 44 00 60 	mulli   r10,r4,96
    1320:	38 68 4d 64 	addi    r3,r8,19812
    1324:	7d 6a 62 14 	add     r11,r10,r12
    1328:	80 ab 00 58 	lwz     r5,88(r11)
    132c:	4c c6 31 82 	crclr   4*cr1+eq
    1330:	48 00 00 01 	bl      1330 <ApcInitNode+0xbec>
    1334:	4b ff f7 90 	b       ac4 <ApcInitNode+0x380>
    1338:	80 81 00 10 	lwz     r4,16(r1)
    133c:	3c 60 00 00 	lis     r3,0
    1340:	39 23 00 00 	addi    r9,r3,0
    1344:	3c c0 00 00 	lis     r6,0
    1348:	1c a4 00 60 	mulli   r5,r4,96
    134c:	38 66 4d 64 	addi    r3,r6,19812
    1350:	7f e5 4a 14 	add     r31,r5,r9
    1354:	80 bf 00 58 	lwz     r5,88(r31)
    1358:	4c c6 31 82 	crclr   4*cr1+eq
    135c:	48 00 00 01 	bl      135c <ApcInitNode+0xc18>
    1360:	4b ff f7 3c 	b       a9c <ApcInitNode+0x358>
    1364:	80 81 00 10 	lwz     r4,16(r1)
    1368:	3d 40 00 00 	lis     r10,0
    136c:	39 6a 00 00 	addi    r11,r10,0
    1370:	3c 60 00 00 	lis     r3,0
    1374:	1d 04 00 60 	mulli   r8,r4,96
    1378:	38 63 4d 64 	addi    r3,r3,19812
    137c:	7c e8 5a 14 	add     r7,r8,r11
    1380:	80 a7 00 58 	lwz     r5,88(r7)
    1384:	4c c6 31 82 	crclr   4*cr1+eq
    1388:	48 00 00 01 	bl      1388 <ApcInitNode+0xc44>
    138c:	4b ff f6 e8 	b       a74 <ApcInitNode+0x330>
    1390:	80 81 00 10 	lwz     r4,16(r1)
    1394:	3d 20 00 00 	lis     r9,0
    1398:	3b e9 00 00 	addi    r31,r9,0
    139c:	3d 40 00 00 	lis     r10,0
    13a0:	1c c4 00 60 	mulli   r6,r4,96
    13a4:	38 6a 4d 64 	addi    r3,r10,19812
    13a8:	7d 86 fa 14 	add     r12,r6,r31
    13ac:	80 ac 00 58 	lwz     r5,88(r12)
    13b0:	4c c6 31 82 	crclr   4*cr1+eq
    13b4:	48 00 00 01 	bl      13b4 <ApcInitNode+0xc70>
    13b8:	4b ff f6 94 	b       a4c <ApcInitNode+0x308>
    13bc:	80 81 00 10 	lwz     r4,16(r1)
    13c0:	3d 00 00 00 	lis     r8,0
    13c4:	38 e8 00 00 	addi    r7,r8,0
    13c8:	3d 20 00 00 	lis     r9,0
    13cc:	1c a4 00 60 	mulli   r5,r4,96
    13d0:	7c 65 3a 14 	add     r3,r5,r7
    13d4:	80 a3 00 58 	lwz     r5,88(r3)
    13d8:	38 69 4d 64 	addi    r3,r9,19812
    13dc:	4c c6 31 82 	crclr   4*cr1+eq
    13e0:	48 00 00 01 	bl      13e0 <ApcInitNode+0xc9c>
    13e4:	4b ff f6 40 	b       a24 <ApcInitNode+0x2e0>
    13e8:	80 81 00 10 	lwz     r4,16(r1)
    13ec:	3c c0 00 00 	lis     r6,0
    13f0:	39 86 00 00 	addi    r12,r6,0
    13f4:	3d 00 00 00 	lis     r8,0
    13f8:	1d 44 00 60 	mulli   r10,r4,96
    13fc:	38 68 4d 64 	addi    r3,r8,19812
    1400:	7d 6a 62 14 	add     r11,r10,r12
    1404:	80 ab 00 58 	lwz     r5,88(r11)
    1408:	4c c6 31 82 	crclr   4*cr1+eq
    140c:	48 00 00 01 	bl      140c <ApcInitNode+0xcc8>
    1410:	4b ff f5 ec 	b       9fc <ApcInitNode+0x2b8>
    1414:	80 81 00 10 	lwz     r4,16(r1)
    1418:	3c 60 00 00 	lis     r3,0
    141c:	39 23 00 00 	addi    r9,r3,0
    1420:	3c c0 00 00 	lis     r6,0
    1424:	1c a4 00 60 	mulli   r5,r4,96
    1428:	38 66 4d 64 	addi    r3,r6,19812
    142c:	7f e5 4a 14 	add     r31,r5,r9
    1430:	80 bf 00 58 	lwz     r5,88(r31)
    1434:	4c c6 31 82 	crclr   4*cr1+eq
    1438:	48 00 00 01 	bl      1438 <ApcInitNode+0xcf4>
    143c:	4b ff f5 98 	b       9d4 <ApcInitNode+0x290>
    1440:	80 81 00 10 	lwz     r4,16(r1)
    1444:	3d 40 00 00 	lis     r10,0
    1448:	39 6a 00 00 	addi    r11,r10,0
    144c:	3c 60 00 00 	lis     r3,0
    1450:	1d 04 00 60 	mulli   r8,r4,96
    1454:	38 63 4d 64 	addi    r3,r3,19812
    1458:	7c e8 5a 14 	add     r7,r8,r11
    145c:	80 a7 00 58 	lwz     r5,88(r7)
    1460:	4c c6 31 82 	crclr   4*cr1+eq
    1464:	48 00 00 01 	bl      1464 <ApcInitNode+0xd20>
    1468:	4b ff f5 44 	b       9ac <ApcInitNode+0x268>
    146c:	80 81 00 10 	lwz     r4,16(r1)
    1470:	3f e0 00 00 	lis     r31,0
    1474:	39 3f 00 00 	addi    r9,r31,0
    1478:	3d 40 00 00 	lis     r10,0
    147c:	1c c4 00 60 	mulli   r6,r4,96
    1480:	38 6a 4d 64 	addi    r3,r10,19812
    1484:	7d 86 4a 14 	add     r12,r6,r9
    1488:	80 ac 00 58 	lwz     r5,88(r12)
    148c:	4c c6 31 82 	crclr   4*cr1+eq
    1490:	48 00 00 01 	bl      1490 <ApcInitNode+0xd4c>
    1494:	4b ff f4 f0 	b       984 <ApcInitNode+0x240>
    1498:	80 81 00 10 	lwz     r4,16(r1)
    149c:	3d 00 00 00 	lis     r8,0
    14a0:	38 e8 00 00 	addi    r7,r8,0
    14a4:	3f e0 00 00 	lis     r31,0
    14a8:	1c a4 00 60 	mulli   r5,r4,96
    14ac:	7c 65 3a 14 	add     r3,r5,r7
    14b0:	80 a3 00 58 	lwz     r5,88(r3)
    14b4:	38 7f 4d 64 	addi    r3,r31,19812
    14b8:	4c c6 31 82 	crclr   4*cr1+eq
    14bc:	48 00 00 01 	bl      14bc <ApcInitNode+0xd78>
    14c0:	4b ff f4 9c 	b       95c <ApcInitNode+0x218>
    14c4:	80 81 00 10 	lwz     r4,16(r1)
    14c8:	3d 80 00 00 	lis     r12,0
    14cc:	39 2c 00 00 	addi    r9,r12,0
    14d0:	3d 00 00 00 	lis     r8,0
    14d4:	1d 44 00 60 	mulli   r10,r4,96
    14d8:	38 68 4d 64 	addi    r3,r8,19812
    14dc:	7d 6a 4a 14 	add     r11,r10,r9
    14e0:	80 ab 00 58 	lwz     r5,88(r11)
    14e4:	4c c6 31 82 	crclr   4*cr1+eq
    14e8:	48 00 00 01 	bl      14e8 <ApcInitNode+0xda4>
    14ec:	4b ff f4 48 	b       934 <ApcInitNode+0x1f0>
    14f0:	80 81 00 10 	lwz     r4,16(r1)
    14f4:	3c 60 00 00 	lis     r3,0
    14f8:	3b e3 00 00 	addi    r31,r3,0
    14fc:	3d 80 00 00 	lis     r12,0
    1500:	1c a4 00 60 	mulli   r5,r4,96
    1504:	38 6c 4d 64 	addi    r3,r12,19812
    1508:	7c c5 fa 14 	add     r6,r5,r31
    150c:	80 a6 00 58 	lwz     r5,88(r6)
    1510:	4c c6 31 82 	crclr   4*cr1+eq
    1514:	48 00 00 01 	bl      1514 <ApcInitNode+0xdd0>
    1518:	4b ff f3 f4 	b       90c <ApcInitNode+0x1c8>
    151c:	80 81 00 10 	lwz     r4,16(r1)
    1520:	3d 60 00 00 	lis     r11,0
    1524:	39 2b 00 00 	addi    r9,r11,0
    1528:	3c 60 00 00 	lis     r3,0
    152c:	1d 04 00 60 	mulli   r8,r4,96
    1530:	38 63 4d 64 	addi    r3,r3,19812
    1534:	7c e8 4a 14 	add     r7,r8,r9
    1538:	80 a7 00 58 	lwz     r5,88(r7)
    153c:	4c c6 31 82 	crclr   4*cr1+eq
    1540:	48 00 00 01 	bl      1540 <ApcInitNode+0xdfc>
    1544:	4b ff f3 a0 	b       8e4 <ApcInitNode+0x1a0>
    1548:	80 81 00 10 	lwz     r4,16(r1)
    154c:	3c c0 00 00 	lis     r6,0
    1550:	39 86 00 00 	addi    r12,r6,0
    1554:	3d 60 00 00 	lis     r11,0
    1558:	1c a4 00 60 	mulli   r5,r4,96
    155c:	38 6b 4d 64 	addi    r3,r11,19812
    1560:	7d 45 62 14 	add     r10,r5,r12
    1564:	80 aa 00 58 	lwz     r5,88(r10)
    1568:	4c c6 31 82 	crclr   4*cr1+eq
    156c:	48 00 00 01 	bl      156c <ApcInitNode+0xe28>
    1570:	4b ff f3 4c 	b       8bc <ApcInitNode+0x178>
    1574:	80 81 00 10 	lwz     r4,16(r1)
    1578:	3c e0 00 00 	lis     r7,0
    157c:	39 27 00 00 	addi    r9,r7,0
    1580:	3c c0 00 00 	lis     r6,0
    1584:	1c 64 00 60 	mulli   r3,r4,96
    1588:	7f e3 4a 14 	add     r31,r3,r9
    158c:	38 66 4d 64 	addi    r3,r6,19812
    1590:	80 bf 00 58 	lwz     r5,88(r31)
    1594:	4c c6 31 82 	crclr   4*cr1+eq
    1598:	48 00 00 01 	bl      1598 <ApcInitNode+0xe54>
    159c:	4b ff f2 f8 	b       894 <ApcInitNode+0x150>
    15a0:	80 81 00 10 	lwz     r4,16(r1)
    15a4:	3d 40 00 00 	lis     r10,0
    15a8:	39 6a 00 00 	addi    r11,r10,0
    15ac:	3c e0 00 00 	lis     r7,0
    15b0:	1c a4 00 60 	mulli   r5,r4,96
    15b4:	38 67 4d 64 	addi    r3,r7,19812
    15b8:	7d 05 5a 14 	add     r8,r5,r11
    15bc:	80 a8 00 58 	lwz     r5,88(r8)
    15c0:	4c c6 31 82 	crclr   4*cr1+eq
    15c4:	48 00 00 01 	bl      15c4 <ApcInitNode+0xe80>
    15c8:	4b ff f2 a4 	b       86c <ApcInitNode+0x128>
    15cc:	39 60 00 03 	li      r11,3
    15d0:	38 80 00 00 	li      r4,0
    15d4:	38 61 1b 80 	addi    r3,r1,7040
    15d8:	91 61 1b 80 	stw     r11,7040(r1)
    15dc:	90 81 1b 84 	stw     r4,7044(r1)
    15e0:	91 61 00 10 	stw     r11,16(r1)
    15e4:	90 81 00 14 	stw     r4,20(r1)
    15e8:	48 00 00 01 	bl      15e8 <ApcInitNode+0xea4>
    15ec:	2f 83 00 00 	cmpwi   cr7,r3,0
    15f0:	40 9e 6d c8 	bne-    cr7,83b8 <ApcInitNode+0x7c74>
    15f4:	38 00 00 07 	li      r0,7
    15f8:	38 c0 00 00 	li      r6,0
    15fc:	38 61 1b 90 	addi    r3,r1,7056
    1600:	90 01 1b 90 	stw     r0,7056(r1)
    1604:	90 c1 1b 94 	stw     r6,7060(r1)
    1608:	90 01 00 10 	stw     r0,16(r1)
    160c:	90 c1 00 14 	stw     r6,20(r1)
    1610:	48 00 00 01 	bl      1610 <ApcInitNode+0xecc>
    1614:	2c 03 00 00 	cmpwi   r3,0
    1618:	40 82 6d 74 	bne-    838c <ApcInitNode+0x7c48>
    161c:	39 80 00 0b 	li      r12,11
    1620:	38 80 00 00 	li      r4,0
    1624:	38 61 1b a0 	addi    r3,r1,7072
    1628:	91 81 1b a0 	stw     r12,7072(r1)
    162c:	90 81 1b a4 	stw     r4,7076(r1)
    1630:	91 81 00 10 	stw     r12,16(r1)
    1634:	90 81 00 14 	stw     r4,20(r1)
    1638:	48 00 00 01 	bl      1638 <ApcInitNode+0xef4>
    163c:	2c 83 00 00 	cmpwi   cr1,r3,0
    1640:	40 86 6d 20 	bne-    cr1,8360 <ApcInitNode+0x7c1c>
    1644:	38 00 00 0f 	li      r0,15
    1648:	38 e0 00 00 	li      r7,0
    164c:	38 61 1b b0 	addi    r3,r1,7088
    1650:	90 01 1b b0 	stw     r0,7088(r1)
    1654:	90 e1 1b b4 	stw     r7,7092(r1)
    1658:	90 01 00 10 	stw     r0,16(r1)
    165c:	90 e1 00 14 	stw     r7,20(r1)
    1660:	48 00 00 01 	bl      1660 <ApcInitNode+0xf1c>
    1664:	2f 03 00 00 	cmpwi   cr6,r3,0
    1668:	40 9a 6c cc 	bne-    cr6,8334 <ApcInitNode+0x7bf0>
    166c:	3b e0 00 80 	li      r31,128
    1670:	38 80 00 00 	li      r4,0
    1674:	38 61 1b c0 	addi    r3,r1,7104
    1678:	93 e1 1b c0 	stw     r31,7104(r1)
    167c:	90 81 1b c4 	stw     r4,7108(r1)
    1680:	93 e1 00 10 	stw     r31,16(r1)
    1684:	90 81 00 14 	stw     r4,20(r1)
    1688:	48 00 00 01 	bl      1688 <ApcInitNode+0xf44>
    168c:	2f 83 00 00 	cmpwi   cr7,r3,0
    1690:	40 9e 6c 78 	bne-    cr7,8308 <ApcInitNode+0x7bc4>
    1694:	38 00 00 86 	li      r0,134
    1698:	39 60 00 00 	li      r11,0
    169c:	38 61 1b d0 	addi    r3,r1,7120
    16a0:	90 01 1b d0 	stw     r0,7120(r1)
    16a4:	91 61 1b d4 	stw     r11,7124(r1)
    16a8:	90 01 00 10 	stw     r0,16(r1)
    16ac:	91 61 00 14 	stw     r11,20(r1)
    16b0:	48 00 00 01 	bl      16b0 <ApcInitNode+0xf6c>
    16b4:	2c 03 00 00 	cmpwi   r3,0
    16b8:	40 82 6c 24 	bne-    82dc <ApcInitNode+0x7b98>
    16bc:	38 a0 00 73 	li      r5,115
    16c0:	38 80 00 00 	li      r4,0
    16c4:	38 61 1b e0 	addi    r3,r1,7136
    16c8:	90 a1 1b e0 	stw     r5,7136(r1)
    16cc:	90 81 1b e4 	stw     r4,7140(r1)
    16d0:	90 a1 00 10 	stw     r5,16(r1)
    16d4:	90 81 00 14 	stw     r4,20(r1)
    16d8:	48 00 00 01 	bl      16d8 <ApcInitNode+0xf94>
    16dc:	2c 83 00 00 	cmpwi   cr1,r3,0
    16e0:	40 86 6b d0 	bne-    cr1,82b0 <ApcInitNode+0x7b6c>
    16e4:	38 00 00 a0 	li      r0,160
    16e8:	39 80 00 00 	li      r12,0
    16ec:	38 61 1b f0 	addi    r3,r1,7152
    16f0:	90 01 1b f0 	stw     r0,7152(r1)
    16f4:	91 81 1b f4 	stw     r12,7156(r1)
    16f8:	90 01 00 10 	stw     r0,16(r1)
    16fc:	91 81 00 14 	stw     r12,20(r1)
    1700:	48 00 00 01 	bl      1700 <ApcInitNode+0xfbc>
    1704:	2f 03 00 00 	cmpwi   cr6,r3,0
    1708:	40 9a 6b 7c 	bne-    cr6,8284 <ApcInitNode+0x7b40>
    170c:	38 e0 00 9c 	li      r7,156
    1710:	38 80 00 00 	li      r4,0
    1714:	38 61 1c 00 	addi    r3,r1,7168
    1718:	90 e1 1c 00 	stw     r7,7168(r1)
    171c:	90 81 1c 04 	stw     r4,7172(r1)
    1720:	90 e1 00 10 	stw     r7,16(r1)
    1724:	90 81 00 14 	stw     r4,20(r1)
    1728:	48 00 00 01 	bl      1728 <ApcInitNode+0xfe4>
    172c:	2f 83 00 00 	cmpwi   cr7,r3,0
    1730:	40 9e 6b 28 	bne-    cr7,8258 <ApcInitNode+0x7b14>
    1734:	38 00 00 9f 	li      r0,159
    1738:	38 c0 00 00 	li      r6,0
    173c:	38 61 1c 10 	addi    r3,r1,7184
    1740:	90 01 1c 10 	stw     r0,7184(r1)
    1744:	90 c1 1c 14 	stw     r6,7188(r1)
    1748:	90 01 00 10 	stw     r0,16(r1)
    174c:	90 c1 00 14 	stw     r6,20(r1)
    1750:	48 00 00 01 	bl      1750 <ApcInitNode+0x100c>
    1754:	2c 03 00 00 	cmpwi   r3,0
    1758:	40 82 6a d4 	bne-    822c <ApcInitNode+0x7ae8>
    175c:	39 60 01 05 	li      r11,261
    1760:	38 80 00 00 	li      r4,0
    1764:	38 61 1c 20 	addi    r3,r1,7200
    1768:	91 61 1c 20 	stw     r11,7200(r1)
    176c:	90 81 1c 24 	stw     r4,7204(r1)
    1770:	91 61 00 10 	stw     r11,16(r1)
    1774:	90 81 00 14 	stw     r4,20(r1)
    1778:	48 00 00 01 	bl      1778 <ApcInitNode+0x1034>
    177c:	2c 83 00 00 	cmpwi   cr1,r3,0
    1780:	40 86 6a 80 	bne-    cr1,8200 <ApcInitNode+0x7abc>
    1784:	38 00 01 11 	li      r0,273
    1788:	38 a0 00 00 	li      r5,0
    178c:	38 61 1c 30 	addi    r3,r1,7216
    1790:	90 01 1c 30 	stw     r0,7216(r1)
    1794:	90 a1 1c 34 	stw     r5,7220(r1)
    1798:	90 01 00 10 	stw     r0,16(r1)
    179c:	90 a1 00 14 	stw     r5,20(r1)
    17a0:	48 00 00 01 	bl      17a0 <ApcInitNode+0x105c>
    17a4:	2f 03 00 00 	cmpwi   cr6,r3,0
    17a8:	40 9a 6a 2c 	bne-    cr6,81d4 <ApcInitNode+0x7a90>
    17ac:	39 80 01 1d 	li      r12,285
    17b0:	38 80 00 00 	li      r4,0
    17b4:	38 61 1c 40 	addi    r3,r1,7232
    17b8:	91 81 1c 40 	stw     r12,7232(r1)
    17bc:	90 81 1c 44 	stw     r4,7236(r1)
    17c0:	91 81 00 10 	stw     r12,16(r1)
    17c4:	90 81 00 14 	stw     r4,20(r1)
    17c8:	48 00 00 01 	bl      17c8 <ApcInitNode+0x1084>
    17cc:	2f 83 00 00 	cmpwi   cr7,r3,0
    17d0:	40 9e 69 d8 	bne-    cr7,81a8 <ApcInitNode+0x7a64>
    17d4:	38 00 01 29 	li      r0,297
    17d8:	38 e0 00 00 	li      r7,0
    17dc:	38 61 1c 50 	addi    r3,r1,7248
    17e0:	90 01 1c 50 	stw     r0,7248(r1)
    17e4:	90 e1 1c 54 	stw     r7,7252(r1)
    17e8:	90 01 00 10 	stw     r0,16(r1)
    17ec:	90 e1 00 14 	stw     r7,20(r1)
    17f0:	48 00 00 01 	bl      17f0 <ApcInitNode+0x10ac>
    17f4:	2c 03 00 00 	cmpwi   r3,0
    17f8:	40 82 69 84 	bne-    817c <ApcInitNode+0x7a38>
    17fc:	38 c0 01 35 	li      r6,309
    1800:	38 80 00 00 	li      r4,0
    1804:	38 61 1c 60 	addi    r3,r1,7264
    1808:	90 c1 1c 60 	stw     r6,7264(r1)
    180c:	90 81 1c 64 	stw     r4,7268(r1)
    1810:	90 c1 00 10 	stw     r6,16(r1)
    1814:	90 81 00 14 	stw     r4,20(r1)
    1818:	48 00 00 01 	bl      1818 <ApcInitNode+0x10d4>
    181c:	2c 83 00 00 	cmpwi   cr1,r3,0
    1820:	40 86 69 30 	bne-    cr1,8150 <ApcInitNode+0x7a0c>
    1824:	38 00 01 41 	li      r0,321
    1828:	39 60 00 00 	li      r11,0
    182c:	38 61 1c 70 	addi    r3,r1,7280
    1830:	90 01 1c 70 	stw     r0,7280(r1)
    1834:	91 61 1c 74 	stw     r11,7284(r1)
    1838:	90 01 00 10 	stw     r0,16(r1)
    183c:	91 61 00 14 	stw     r11,20(r1)
    1840:	48 00 00 01 	bl      1840 <ApcInitNode+0x10fc>
    1844:	2f 03 00 00 	cmpwi   cr6,r3,0
    1848:	40 9a 68 dc 	bne-    cr6,8124 <ApcInitNode+0x79e0>
    184c:	38 a0 00 7b 	li      r5,123
    1850:	38 80 00 00 	li      r4,0
    1854:	38 61 1c 80 	addi    r3,r1,7296
    1858:	90 a1 1c 80 	stw     r5,7296(r1)
    185c:	90 81 1c 84 	stw     r4,7300(r1)
    1860:	90 a1 00 10 	stw     r5,16(r1)
    1864:	90 81 00 14 	stw     r4,20(r1)
    1868:	48 00 00 01 	bl      1868 <ApcInitNode+0x1124>
    186c:	2f 83 00 00 	cmpwi   cr7,r3,0
    1870:	40 9e 68 88 	bne-    cr7,80f8 <ApcInitNode+0x79b4>
    1874:	38 00 00 76 	li      r0,118
    1878:	39 80 00 00 	li      r12,0
    187c:	38 61 1c 90 	addi    r3,r1,7312
    1880:	90 01 1c 90 	stw     r0,7312(r1)
    1884:	91 81 1c 94 	stw     r12,7316(r1)
    1888:	90 01 00 10 	stw     r0,16(r1)
    188c:	91 81 00 14 	stw     r12,20(r1)
    1890:	48 00 00 01 	bl      1890 <ApcInitNode+0x114c>
    1894:	2c 03 00 00 	cmpwi   r3,0
    1898:	40 82 68 34 	bne-    80cc <ApcInitNode+0x7988>
    189c:	38 e0 00 7d 	li      r7,125
    18a0:	38 80 00 00 	li      r4,0
    18a4:	38 61 1c a0 	addi    r3,r1,7328
    18a8:	90 e1 1c a0 	stw     r7,7328(r1)
    18ac:	90 81 1c a4 	stw     r4,7332(r1)
    18b0:	90 e1 00 10 	stw     r7,16(r1)
    18b4:	90 81 00 14 	stw     r4,20(r1)
    18b8:	48 00 00 01 	bl      18b8 <ApcInitNode+0x1174>
    18bc:	2c 83 00 00 	cmpwi   cr1,r3,0
    18c0:	40 86 67 e0 	bne-    cr1,80a0 <ApcInitNode+0x795c>
    18c4:	38 00 00 78 	li      r0,120
    18c8:	38 c0 00 00 	li      r6,0
    18cc:	38 61 1c b0 	addi    r3,r1,7344
    18d0:	90 01 1c b0 	stw     r0,7344(r1)
    18d4:	90 c1 1c b4 	stw     r6,7348(r1)
    18d8:	90 01 00 10 	stw     r0,16(r1)
    18dc:	90 c1 00 14 	stw     r6,20(r1)
    18e0:	48 00 00 01 	bl      18e0 <ApcInitNode+0x119c>
    18e4:	2f 03 00 00 	cmpwi   cr6,r3,0
    18e8:	40 9a 67 8c 	bne-    cr6,8074 <ApcInitNode+0x7930>
    18ec:	39 60 00 7e 	li      r11,126
    18f0:	38 80 00 00 	li      r4,0
    18f4:	38 61 1c c0 	addi    r3,r1,7360
    18f8:	91 61 1c c0 	stw     r11,7360(r1)
    18fc:	90 81 1c c4 	stw     r4,7364(r1)
    1900:	91 61 00 10 	stw     r11,16(r1)
    1904:	90 81 00 14 	stw     r4,20(r1)
    1908:	48 00 00 01 	bl      1908 <ApcInitNode+0x11c4>
    190c:	2f 83 00 00 	cmpwi   cr7,r3,0
    1910:	40 9e 67 38 	bne-    cr7,8048 <ApcInitNode+0x7904>
    1914:	38 00 00 7f 	li      r0,127
    1918:	38 a0 00 00 	li      r5,0
    191c:	38 61 1c d0 	addi    r3,r1,7376
    1920:	90 01 1c d0 	stw     r0,7376(r1)
    1924:	90 a1 1c d4 	stw     r5,7380(r1)
    1928:	90 01 00 10 	stw     r0,16(r1)
    192c:	90 a1 00 14 	stw     r5,20(r1)
    1930:	48 00 00 01 	bl      1930 <ApcInitNode+0x11ec>
    1934:	2c 03 00 00 	cmpwi   r3,0
    1938:	40 82 66 e4 	bne-    801c <ApcInitNode+0x78d8>
    193c:	39 80 00 97 	li      r12,151
    1940:	38 80 00 00 	li      r4,0
    1944:	38 61 1c e0 	addi    r3,r1,7392
    1948:	91 81 1c e0 	stw     r12,7392(r1)
    194c:	90 81 1c e4 	stw     r4,7396(r1)
    1950:	91 81 00 10 	stw     r12,16(r1)
    1954:	90 81 00 14 	stw     r4,20(r1)
    1958:	48 00 00 01 	bl      1958 <ApcInitNode+0x1214>
    195c:	2c 83 00 00 	cmpwi   cr1,r3,0
    1960:	40 86 66 90 	bne-    cr1,7ff0 <ApcInitNode+0x78ac>
    1964:	38 00 00 93 	li      r0,147
    1968:	38 e0 00 00 	li      r7,0
    196c:	38 61 1c f0 	addi    r3,r1,7408
    1970:	90 01 1c f0 	stw     r0,7408(r1)
    1974:	90 e1 1c f4 	stw     r7,7412(r1)
    1978:	90 01 00 10 	stw     r0,16(r1)
    197c:	90 e1 00 14 	stw     r7,20(r1)
    1980:	48 00 00 01 	bl      1980 <ApcInitNode+0x123c>
    1984:	2f 03 00 00 	cmpwi   cr6,r3,0
    1988:	40 9a 66 3c 	bne-    cr6,7fc4 <ApcInitNode+0x7880>
    198c:	38 c0 00 82 	li      r6,130
    1990:	38 80 00 00 	li      r4,0
    1994:	38 61 1d 00 	addi    r3,r1,7424
    1998:	90 c1 1d 00 	stw     r6,7424(r1)
    199c:	90 81 1d 04 	stw     r4,7428(r1)
    19a0:	90 c1 00 10 	stw     r6,16(r1)
    19a4:	90 81 00 14 	stw     r4,20(r1)
    19a8:	48 00 00 01 	bl      19a8 <ApcInitNode+0x1264>
    19ac:	2f 83 00 00 	cmpwi   cr7,r3,0
    19b0:	40 9e 65 e8 	bne-    cr7,7f98 <ApcInitNode+0x7854>
    19b4:	38 00 00 85 	li      r0,133
    19b8:	39 60 00 00 	li      r11,0
    19bc:	38 61 1d 10 	addi    r3,r1,7440
    19c0:	90 01 1d 10 	stw     r0,7440(r1)
    19c4:	91 61 1d 14 	stw     r11,7444(r1)
    19c8:	90 01 00 10 	stw     r0,16(r1)
    19cc:	91 61 00 14 	stw     r11,20(r1)
    19d0:	48 00 00 01 	bl      19d0 <ApcInitNode+0x128c>
    19d4:	2c 03 00 00 	cmpwi   r3,0
    19d8:	40 82 65 94 	bne-    7f6c <ApcInitNode+0x7828>
    19dc:	38 80 00 77 	li      r4,119
    19e0:	3b e0 00 00 	li      r31,0
    19e4:	38 61 1d 20 	addi    r3,r1,7456
    19e8:	90 81 1d 20 	stw     r4,7456(r1)
    19ec:	90 81 00 10 	stw     r4,16(r1)
    19f0:	93 e1 00 14 	stw     r31,20(r1)
    19f4:	93 e1 1d 24 	stw     r31,7460(r1)
    19f8:	48 00 00 01 	bl      19f8 <ApcInitNode+0x12b4>
    19fc:	2c 83 00 00 	cmpwi   cr1,r3,0
    1a00:	40 86 65 40 	bne-    cr1,7f40 <ApcInitNode+0x77fc>
    1a04:	38 00 00 7a 	li      r0,122
    1a08:	38 61 1d 30 	addi    r3,r1,7472
    1a0c:	90 01 1d 30 	stw     r0,7472(r1)
    1a10:	90 01 00 10 	stw     r0,16(r1)
    1a14:	93 e1 00 14 	stw     r31,20(r1)
    1a18:	93 e1 1d 34 	stw     r31,7476(r1)
    1a1c:	48 00 00 01 	bl      1a1c <ApcInitNode+0x12d8>
    1a20:	2f 03 00 00 	cmpwi   cr6,r3,0
    1a24:	40 9a 64 f0 	bne-    cr6,7f14 <ApcInitNode+0x77d0>
    1a28:	38 80 00 79 	li      r4,121
    1a2c:	38 61 1d 40 	addi    r3,r1,7488
    1a30:	90 81 1d 40 	stw     r4,7488(r1)
    1a34:	90 81 00 10 	stw     r4,16(r1)
    1a38:	93 e1 00 14 	stw     r31,20(r1)
    1a3c:	93 e1 1d 44 	stw     r31,7492(r1)
    1a40:	48 00 00 01 	bl      1a40 <ApcInitNode+0x12fc>
    1a44:	2f 83 00 00 	cmpwi   cr7,r3,0
    1a48:	40 9e 64 a0 	bne-    cr7,7ee8 <ApcInitNode+0x77a4>
    1a4c:	38 00 00 7c 	li      r0,124
    1a50:	38 61 1d 50 	addi    r3,r1,7504
    1a54:	90 01 1d 50 	stw     r0,7504(r1)
    1a58:	90 01 00 10 	stw     r0,16(r1)
    1a5c:	93 e1 00 14 	stw     r31,20(r1)
    1a60:	93 e1 1d 54 	stw     r31,7508(r1)
    1a64:	48 00 00 01 	bl      1a64 <ApcInitNode+0x1320>
    1a68:	2c 03 00 00 	cmpwi   r3,0
    1a6c:	40 82 64 50 	bne-    7ebc <ApcInitNode+0x7778>
    1a70:	38 80 00 74 	li      r4,116
    1a74:	38 61 1d 60 	addi    r3,r1,7520
    1a78:	90 81 1d 60 	stw     r4,7520(r1)
    1a7c:	90 81 00 10 	stw     r4,16(r1)
    1a80:	93 e1 00 14 	stw     r31,20(r1)
    1a84:	93 e1 1d 64 	stw     r31,7524(r1)
    1a88:	48 00 00 01 	bl      1a88 <ApcInitNode+0x1344>
    1a8c:	2c 83 00 00 	cmpwi   cr1,r3,0
    1a90:	40 86 64 00 	bne-    cr1,7e90 <ApcInitNode+0x774c>
    1a94:	38 00 00 9b 	li      r0,155
    1a98:	38 61 1d 70 	addi    r3,r1,7536
    1a9c:	90 01 1d 70 	stw     r0,7536(r1)
    1aa0:	90 01 00 10 	stw     r0,16(r1)
    1aa4:	93 e1 00 14 	stw     r31,20(r1)
    1aa8:	93 e1 1d 74 	stw     r31,7540(r1)
    1aac:	48 00 00 01 	bl      1aac <ApcInitNode+0x1368>
    1ab0:	2f 03 00 00 	cmpwi   cr6,r3,0
    1ab4:	40 9a 63 b0 	bne-    cr6,7e64 <ApcInitNode+0x7720>
    1ab8:	38 80 00 9a 	li      r4,154
    1abc:	38 61 1d 80 	addi    r3,r1,7552
    1ac0:	90 81 1d 80 	stw     r4,7552(r1)
    1ac4:	90 81 00 10 	stw     r4,16(r1)
    1ac8:	93 e1 00 14 	stw     r31,20(r1)
    1acc:	93 e1 1d 84 	stw     r31,7556(r1)
    1ad0:	48 00 00 01 	bl      1ad0 <ApcInitNode+0x138c>
    1ad4:	2f 83 00 00 	cmpwi   cr7,r3,0
    1ad8:	40 9e 4d 04 	bne-    cr7,67dc <ApcInitNode+0x6098>
    1adc:	38 00 00 9e 	li      r0,158
    1ae0:	38 61 1d 90 	addi    r3,r1,7568
    1ae4:	90 01 1d 90 	stw     r0,7568(r1)
    1ae8:	90 01 00 10 	stw     r0,16(r1)
    1aec:	93 e1 00 14 	stw     r31,20(r1)
    1af0:	93 e1 1d 94 	stw     r31,7572(r1)
    1af4:	48 00 00 01 	bl      1af4 <ApcInitNode+0x13b0>
    1af8:	2c 03 00 00 	cmpwi   r3,0
    1afc:	40 82 4c b4 	bne-    67b0 <ApcInitNode+0x606c>
    1b00:	38 80 00 99 	li      r4,153
    1b04:	38 61 1d a0 	addi    r3,r1,7584
    1b08:	90 81 1d a0 	stw     r4,7584(r1)
    1b0c:	90 81 00 10 	stw     r4,16(r1)
    1b10:	93 e1 00 14 	stw     r31,20(r1)
    1b14:	93 e1 1d a4 	stw     r31,7588(r1)
    1b18:	48 00 00 01 	bl      1b18 <ApcInitNode+0x13d4>
    1b1c:	2c 83 00 00 	cmpwi   cr1,r3,0
    1b20:	40 86 4c 64 	bne-    cr1,6784 <ApcInitNode+0x6040>
    1b24:	38 00 00 9d 	li      r0,157
    1b28:	38 61 1d b0 	addi    r3,r1,7600
    1b2c:	90 01 1d b0 	stw     r0,7600(r1)
    1b30:	93 e1 1d b4 	stw     r31,7604(r1)
    1b34:	90 01 00 10 	stw     r0,16(r1)
    1b38:	93 e1 00 14 	stw     r31,20(r1)
    1b3c:	48 00 00 01 	bl      1b3c <ApcInitNode+0x13f8>
    1b40:	2f 03 00 00 	cmpwi   cr6,r3,0
    1b44:	40 9a 4c 14 	bne-    cr6,6758 <ApcInitNode+0x6014>
    1b48:	38 00 01 47 	li      r0,327
    1b4c:	39 20 00 03 	li      r9,3
    1b50:	38 61 1d c0 	addi    r3,r1,7616
    1b54:	90 01 1d c0 	stw     r0,7616(r1)
    1b58:	91 21 1d c4 	stw     r9,7620(r1)
    1b5c:	4b ff f2 c8 	b       e24 <ApcInitNode+0x6e0>
    1b60:	38 00 00 02 	li      r0,2
    1b64:	38 e0 00 00 	li      r7,0
    1b68:	38 61 1a 20 	addi    r3,r1,6688
    1b6c:	90 01 1a 20 	stw     r0,6688(r1)
    1b70:	90 e1 1a 24 	stw     r7,6692(r1)
    1b74:	90 01 00 10 	stw     r0,16(r1)
    1b78:	90 e1 00 14 	stw     r7,20(r1)
    1b7c:	48 00 00 01 	bl      1b7c <ApcInitNode+0x1438>
    1b80:	2f 03 00 00 	cmpwi   cr6,r3,0
    1b84:	40 9a 57 b4 	bne-    cr6,7338 <ApcInitNode+0x6bf4>
    1b88:	39 40 00 06 	li      r10,6
    1b8c:	38 80 00 00 	li      r4,0
    1b90:	38 61 1a 30 	addi    r3,r1,6704
    1b94:	91 41 1a 30 	stw     r10,6704(r1)
    1b98:	90 81 1a 34 	stw     r4,6708(r1)
    1b9c:	91 41 00 10 	stw     r10,16(r1)
    1ba0:	90 81 00 14 	stw     r4,20(r1)
    1ba4:	48 00 00 01 	bl      1ba4 <ApcInitNode+0x1460>
    1ba8:	2f 83 00 00 	cmpwi   cr7,r3,0
    1bac:	40 9e 57 60 	bne-    cr7,730c <ApcInitNode+0x6bc8>
    1bb0:	38 00 00 0a 	li      r0,10
    1bb4:	39 60 00 00 	li      r11,0
    1bb8:	38 61 1a 40 	addi    r3,r1,6720
    1bbc:	90 01 1a 40 	stw     r0,6720(r1)
    1bc0:	91 61 1a 44 	stw     r11,6724(r1)
    1bc4:	90 01 00 10 	stw     r0,16(r1)
    1bc8:	91 61 00 14 	stw     r11,20(r1)
    1bcc:	48 00 00 01 	bl      1bcc <ApcInitNode+0x1488>
    1bd0:	2c 03 00 00 	cmpwi   r3,0
    1bd4:	40 82 57 0c 	bne-    72e0 <ApcInitNode+0x6b9c>
    1bd8:	38 c0 00 0e 	li      r6,14
    1bdc:	38 80 00 00 	li      r4,0
    1be0:	38 61 1a 50 	addi    r3,r1,6736
    1be4:	90 c1 1a 50 	stw     r6,6736(r1)
    1be8:	90 81 1a 54 	stw     r4,6740(r1)
    1bec:	90 c1 00 10 	stw     r6,16(r1)
    1bf0:	90 81 00 14 	stw     r4,20(r1)
    1bf4:	48 00 00 01 	bl      1bf4 <ApcInitNode+0x14b0>
    1bf8:	2c 83 00 00 	cmpwi   cr1,r3,0
    1bfc:	40 86 56 b8 	bne-    cr1,72b4 <ApcInitNode+0x6b70>
    1c00:	38 00 00 d3 	li      r0,211
    1c04:	3b e0 00 00 	li      r31,0
    1c08:	38 61 1a 60 	addi    r3,r1,6752
    1c0c:	90 01 1a 60 	stw     r0,6752(r1)
    1c10:	93 e1 1a 64 	stw     r31,6756(r1)
    1c14:	90 01 00 10 	stw     r0,16(r1)
    1c18:	93 e1 00 14 	stw     r31,20(r1)
    1c1c:	48 00 00 01 	bl      1c1c <ApcInitNode+0x14d8>
    1c20:	2f 03 00 00 	cmpwi   cr6,r3,0
    1c24:	40 9a 56 64 	bne-    cr6,7288 <ApcInitNode+0x6b44>
    1c28:	38 e0 01 05 	li      r7,261
    1c2c:	38 80 00 00 	li      r4,0
    1c30:	38 61 1a 70 	addi    r3,r1,6768
    1c34:	90 e1 1a 70 	stw     r7,6768(r1)
    1c38:	90 81 1a 74 	stw     r4,6772(r1)
    1c3c:	90 e1 00 10 	stw     r7,16(r1)
    1c40:	90 81 00 14 	stw     r4,20(r1)
    1c44:	48 00 00 01 	bl      1c44 <ApcInitNode+0x1500>
    1c48:	2f 83 00 00 	cmpwi   cr7,r3,0
    1c4c:	40 9e 56 10 	bne-    cr7,725c <ApcInitNode+0x6b18>
    1c50:	38 00 01 11 	li      r0,273
    1c54:	39 80 00 00 	li      r12,0
    1c58:	38 61 1a 80 	addi    r3,r1,6784
    1c5c:	90 01 1a 80 	stw     r0,6784(r1)
    1c60:	91 81 1a 84 	stw     r12,6788(r1)
    1c64:	90 01 00 10 	stw     r0,16(r1)
    1c68:	91 81 00 14 	stw     r12,20(r1)
    1c6c:	48 00 00 01 	bl      1c6c <ApcInitNode+0x1528>
    1c70:	2c 03 00 00 	cmpwi   r3,0
    1c74:	40 82 55 bc 	bne-    7230 <ApcInitNode+0x6aec>
    1c78:	39 60 01 1d 	li      r11,285
    1c7c:	38 80 00 00 	li      r4,0
    1c80:	38 61 1a 90 	addi    r3,r1,6800
    1c84:	91 61 1a 90 	stw     r11,6800(r1)
    1c88:	90 81 1a 94 	stw     r4,6804(r1)
    1c8c:	91 61 00 10 	stw     r11,16(r1)
    1c90:	90 81 00 14 	stw     r4,20(r1)
    1c94:	48 00 00 01 	bl      1c94 <ApcInitNode+0x1550>
    1c98:	2c 83 00 00 	cmpwi   cr1,r3,0
    1c9c:	40 86 55 68 	bne-    cr1,7204 <ApcInitNode+0x6ac0>
    1ca0:	38 00 01 29 	li      r0,297
    1ca4:	38 a0 00 00 	li      r5,0
    1ca8:	38 61 1a a0 	addi    r3,r1,6816
    1cac:	90 01 1a a0 	stw     r0,6816(r1)
    1cb0:	90 a1 1a a4 	stw     r5,6820(r1)
    1cb4:	90 01 00 10 	stw     r0,16(r1)
    1cb8:	90 a1 00 14 	stw     r5,20(r1)
    1cbc:	48 00 00 01 	bl      1cbc <ApcInitNode+0x1578>
    1cc0:	2f 03 00 00 	cmpwi   cr6,r3,0
    1cc4:	40 9a 55 14 	bne-    cr6,71d8 <ApcInitNode+0x6a94>
    1cc8:	39 40 01 35 	li      r10,309
    1ccc:	38 80 00 00 	li      r4,0
    1cd0:	38 61 1a b0 	addi    r3,r1,6832
    1cd4:	91 41 1a b0 	stw     r10,6832(r1)
    1cd8:	90 81 1a b4 	stw     r4,6836(r1)
    1cdc:	91 41 00 10 	stw     r10,16(r1)
    1ce0:	90 81 00 14 	stw     r4,20(r1)
    1ce4:	48 00 00 01 	bl      1ce4 <ApcInitNode+0x15a0>
    1ce8:	2f 83 00 00 	cmpwi   cr7,r3,0
    1cec:	40 9e 54 c0 	bne-    cr7,71ac <ApcInitNode+0x6a68>
    1cf0:	38 00 01 41 	li      r0,321
    1cf4:	38 e0 00 00 	li      r7,0
    1cf8:	38 61 1a c0 	addi    r3,r1,6848
    1cfc:	90 01 1a c0 	stw     r0,6848(r1)
    1d00:	90 e1 1a c4 	stw     r7,6852(r1)
    1d04:	90 01 00 10 	stw     r0,16(r1)
    1d08:	90 e1 00 14 	stw     r7,20(r1)
    1d0c:	48 00 00 01 	bl      1d0c <ApcInitNode+0x15c8>
    1d10:	2c 03 00 00 	cmpwi   r3,0
    1d14:	40 82 54 6c 	bne-    7180 <ApcInitNode+0x6a3c>
    1d18:	38 80 00 d6 	li      r4,214
    1d1c:	3b e0 00 00 	li      r31,0
    1d20:	38 61 1a d0 	addi    r3,r1,6864
    1d24:	90 81 1a d0 	stw     r4,6864(r1)
    1d28:	90 81 00 10 	stw     r4,16(r1)
    1d2c:	93 e1 00 14 	stw     r31,20(r1)
    1d30:	93 e1 1a d4 	stw     r31,6868(r1)
    1d34:	48 00 00 01 	bl      1d34 <ApcInitNode+0x15f0>
    1d38:	2c 83 00 00 	cmpwi   cr1,r3,0
    1d3c:	40 86 54 18 	bne-    cr1,7154 <ApcInitNode+0x6a10>
    1d40:	38 00 00 d7 	li      r0,215
    1d44:	38 61 1a e0 	addi    r3,r1,6880
    1d48:	90 01 1a e0 	stw     r0,6880(r1)
    1d4c:	90 01 00 10 	stw     r0,16(r1)
    1d50:	93 e1 00 14 	stw     r31,20(r1)
    1d54:	93 e1 1a e4 	stw     r31,6884(r1)
    1d58:	48 00 00 01 	bl      1d58 <ApcInitNode+0x1614>
    1d5c:	2f 03 00 00 	cmpwi   cr6,r3,0
    1d60:	40 9a 53 c8 	bne-    cr6,7128 <ApcInitNode+0x69e4>
    1d64:	38 80 00 d8 	li      r4,216
    1d68:	38 61 1a f0 	addi    r3,r1,6896
    1d6c:	90 81 1a f0 	stw     r4,6896(r1)
    1d70:	90 81 00 10 	stw     r4,16(r1)
    1d74:	93 e1 00 14 	stw     r31,20(r1)
    1d78:	93 e1 1a f4 	stw     r31,6900(r1)
    1d7c:	48 00 00 01 	bl      1d7c <ApcInitNode+0x1638>
    1d80:	2f 83 00 00 	cmpwi   cr7,r3,0
    1d84:	40 9e 53 78 	bne-    cr7,70fc <ApcInitNode+0x69b8>
    1d88:	38 00 00 d0 	li      r0,208
    1d8c:	38 61 1b 00 	addi    r3,r1,6912
    1d90:	90 01 1b 00 	stw     r0,6912(r1)
    1d94:	90 01 00 10 	stw     r0,16(r1)
    1d98:	93 e1 00 14 	stw     r31,20(r1)
    1d9c:	93 e1 1b 04 	stw     r31,6916(r1)
    1da0:	48 00 00 01 	bl      1da0 <ApcInitNode+0x165c>
    1da4:	2c 03 00 00 	cmpwi   r3,0
    1da8:	40 82 53 28 	bne-    70d0 <ApcInitNode+0x698c>
    1dac:	38 80 00 d4 	li      r4,212
    1db0:	38 61 1b 10 	addi    r3,r1,6928
    1db4:	90 81 1b 10 	stw     r4,6928(r1)
    1db8:	90 81 00 10 	stw     r4,16(r1)
    1dbc:	93 e1 00 14 	stw     r31,20(r1)
    1dc0:	93 e1 1b 14 	stw     r31,6932(r1)
    1dc4:	48 00 00 01 	bl      1dc4 <ApcInitNode+0x1680>
    1dc8:	2c 83 00 00 	cmpwi   cr1,r3,0
    1dcc:	40 86 52 d8 	bne-    cr1,70a4 <ApcInitNode+0x6960>
    1dd0:	38 00 00 ce 	li      r0,206
    1dd4:	38 61 1b 20 	addi    r3,r1,6944
    1dd8:	90 01 1b 20 	stw     r0,6944(r1)
    1ddc:	90 01 00 10 	stw     r0,16(r1)
    1de0:	93 e1 00 14 	stw     r31,20(r1)
    1de4:	93 e1 1b 24 	stw     r31,6948(r1)
    1de8:	48 00 00 01 	bl      1de8 <ApcInitNode+0x16a4>
    1dec:	2f 03 00 00 	cmpwi   cr6,r3,0
    1df0:	40 9a 4e bc 	bne-    cr6,6cac <ApcInitNode+0x6568>
    1df4:	38 80 00 d2 	li      r4,210
    1df8:	38 61 1b 30 	addi    r3,r1,6960
    1dfc:	90 81 1b 30 	stw     r4,6960(r1)
    1e00:	90 81 00 10 	stw     r4,16(r1)
    1e04:	93 e1 00 14 	stw     r31,20(r1)
    1e08:	93 e1 1b 34 	stw     r31,6964(r1)
    1e0c:	48 00 00 01 	bl      1e0c <ApcInitNode+0x16c8>
    1e10:	2f 83 00 00 	cmpwi   cr7,r3,0
    1e14:	40 9e 4e 6c 	bne-    cr7,6c80 <ApcInitNode+0x653c>
    1e18:	38 00 00 d1 	li      r0,209
    1e1c:	38 61 1b 40 	addi    r3,r1,6976
    1e20:	90 01 1b 40 	stw     r0,6976(r1)
    1e24:	90 01 00 10 	stw     r0,16(r1)
    1e28:	93 e1 00 14 	stw     r31,20(r1)
    1e2c:	93 e1 1b 44 	stw     r31,6980(r1)
    1e30:	48 00 00 01 	bl      1e30 <ApcInitNode+0x16ec>
    1e34:	2c 03 00 00 	cmpwi   r3,0
    1e38:	40 82 4e 1c 	bne-    6c54 <ApcInitNode+0x6510>
    1e3c:	38 80 00 d5 	li      r4,213
    1e40:	38 61 1b 50 	addi    r3,r1,6992
    1e44:	90 81 1b 50 	stw     r4,6992(r1)
    1e48:	90 81 00 10 	stw     r4,16(r1)
    1e4c:	93 e1 00 14 	stw     r31,20(r1)
    1e50:	93 e1 1b 54 	stw     r31,6996(r1)
    1e54:	48 00 00 01 	bl      1e54 <ApcInitNode+0x1710>
    1e58:	2c 83 00 00 	cmpwi   cr1,r3,0
    1e5c:	40 86 4d cc 	bne-    cr1,6c28 <ApcInitNode+0x64e4>
    1e60:	38 00 00 cf 	li      r0,207
    1e64:	38 61 1b 60 	addi    r3,r1,7008
    1e68:	90 01 1b 60 	stw     r0,7008(r1)
    1e6c:	93 e1 1b 64 	stw     r31,7012(r1)
    1e70:	90 01 00 10 	stw     r0,16(r1)
    1e74:	93 e1 00 14 	stw     r31,20(r1)
    1e78:	48 00 00 01 	bl      1e78 <ApcInitNode+0x1734>
    1e7c:	2f 03 00 00 	cmpwi   cr6,r3,0
    1e80:	40 9a 50 c4 	bne-    cr6,6f44 <ApcInitNode+0x6800>
    1e84:	38 00 01 47 	li      r0,327
    1e88:	39 20 00 03 	li      r9,3
    1e8c:	38 61 1b 70 	addi    r3,r1,7024
    1e90:	90 01 1b 70 	stw     r0,7024(r1)
    1e94:	91 21 1b 74 	stw     r9,7028(r1)
    1e98:	4b ff ef 8c 	b       e24 <ApcInitNode+0x6e0>
    1e9c:	38 c0 00 01 	li      r6,1
    1ea0:	38 80 00 00 	li      r4,0
    1ea4:	38 61 18 c0 	addi    r3,r1,6336
    1ea8:	90 c1 18 c0 	stw     r6,6336(r1)
    1eac:	90 81 18 c4 	stw     r4,6340(r1)
    1eb0:	90 c1 00 10 	stw     r6,16(r1)
    1eb4:	90 81 00 14 	stw     r4,20(r1)
    1eb8:	48 00 00 01 	bl      1eb8 <ApcInitNode+0x1774>
    1ebc:	2c 83 00 00 	cmpwi   cr1,r3,0
    1ec0:	40 86 59 f8 	bne-    cr1,78b8 <ApcInitNode+0x7174>
    1ec4:	38 00 00 05 	li      r0,5
    1ec8:	39 60 00 00 	li      r11,0
    1ecc:	38 61 18 d0 	addi    r3,r1,6352
    1ed0:	90 01 18 d0 	stw     r0,6352(r1)
    1ed4:	91 61 18 d4 	stw     r11,6356(r1)
    1ed8:	90 01 00 10 	stw     r0,16(r1)
    1edc:	91 61 00 14 	stw     r11,20(r1)
    1ee0:	48 00 00 01 	bl      1ee0 <ApcInitNode+0x179c>
    1ee4:	2f 03 00 00 	cmpwi   cr6,r3,0
    1ee8:	40 9a 59 a4 	bne-    cr6,788c <ApcInitNode+0x7148>
    1eec:	38 e0 00 09 	li      r7,9
    1ef0:	38 80 00 00 	li      r4,0
    1ef4:	38 61 18 e0 	addi    r3,r1,6368
    1ef8:	90 e1 18 e0 	stw     r7,6368(r1)
    1efc:	90 81 18 e4 	stw     r4,6372(r1)
    1f00:	90 e1 00 10 	stw     r7,16(r1)
    1f04:	90 81 00 14 	stw     r4,20(r1)
    1f08:	48 00 00 01 	bl      1f08 <ApcInitNode+0x17c4>
    1f0c:	2f 83 00 00 	cmpwi   cr7,r3,0
    1f10:	40 9e 59 50 	bne-    cr7,7860 <ApcInitNode+0x711c>
    1f14:	38 00 00 0d 	li      r0,13
    1f18:	39 80 00 00 	li      r12,0
    1f1c:	38 61 18 f0 	addi    r3,r1,6384
    1f20:	90 01 18 f0 	stw     r0,6384(r1)
    1f24:	91 81 18 f4 	stw     r12,6388(r1)
    1f28:	90 01 00 10 	stw     r0,16(r1)
    1f2c:	91 81 00 14 	stw     r12,20(r1)
    1f30:	48 00 00 01 	bl      1f30 <ApcInitNode+0x17ec>
    1f34:	2c 03 00 00 	cmpwi   r3,0
    1f38:	40 82 58 fc 	bne-    7834 <ApcInitNode+0x70f0>
    1f3c:	3b e0 00 e0 	li      r31,224
    1f40:	38 80 00 00 	li      r4,0
    1f44:	38 61 19 00 	addi    r3,r1,6400
    1f48:	93 e1 19 00 	stw     r31,6400(r1)
    1f4c:	90 81 19 04 	stw     r4,6404(r1)
    1f50:	93 e1 00 10 	stw     r31,16(r1)
    1f54:	90 81 00 14 	stw     r4,20(r1)
    1f58:	48 00 00 01 	bl      1f58 <ApcInitNode+0x1814>
    1f5c:	2c 83 00 00 	cmpwi   cr1,r3,0
    1f60:	40 86 58 a8 	bne-    cr1,7808 <ApcInitNode+0x70c4>
    1f64:	38 00 00 dd 	li      r0,221
    1f68:	38 a0 00 00 	li      r5,0
    1f6c:	38 61 19 10 	addi    r3,r1,6416
    1f70:	90 01 19 10 	stw     r0,6416(r1)
    1f74:	90 a1 19 14 	stw     r5,6420(r1)
    1f78:	90 01 00 10 	stw     r0,16(r1)
    1f7c:	90 a1 00 14 	stw     r5,20(r1)
    1f80:	48 00 00 01 	bl      1f80 <ApcInitNode+0x183c>
    1f84:	2f 03 00 00 	cmpwi   cr6,r3,0
    1f88:	40 9a 58 54 	bne-    cr6,77dc <ApcInitNode+0x7098>
    1f8c:	39 40 01 05 	li      r10,261
    1f90:	38 80 00 00 	li      r4,0
    1f94:	38 61 19 20 	addi    r3,r1,6432
    1f98:	91 41 19 20 	stw     r10,6432(r1)
    1f9c:	90 81 19 24 	stw     r4,6436(r1)
    1fa0:	91 41 00 10 	stw     r10,16(r1)
    1fa4:	90 81 00 14 	stw     r4,20(r1)
    1fa8:	48 00 00 01 	bl      1fa8 <ApcInitNode+0x1864>
    1fac:	2f 83 00 00 	cmpwi   cr7,r3,0
    1fb0:	40 9e 58 00 	bne-    cr7,77b0 <ApcInitNode+0x706c>
    1fb4:	38 00 01 11 	li      r0,273
    1fb8:	38 e0 00 00 	li      r7,0
    1fbc:	38 61 19 30 	addi    r3,r1,6448
    1fc0:	90 01 19 30 	stw     r0,6448(r1)
    1fc4:	90 e1 19 34 	stw     r7,6452(r1)
    1fc8:	90 01 00 10 	stw     r0,16(r1)
    1fcc:	90 e1 00 14 	stw     r7,20(r1)
    1fd0:	48 00 00 01 	bl      1fd0 <ApcInitNode+0x188c>
    1fd4:	2c 03 00 00 	cmpwi   r3,0
    1fd8:	40 82 57 ac 	bne-    7784 <ApcInitNode+0x7040>
    1fdc:	38 c0 01 1d 	li      r6,285
    1fe0:	38 80 00 00 	li      r4,0
    1fe4:	38 61 19 40 	addi    r3,r1,6464
    1fe8:	90 c1 19 40 	stw     r6,6464(r1)
    1fec:	90 81 19 44 	stw     r4,6468(r1)
    1ff0:	90 c1 00 10 	stw     r6,16(r1)
    1ff4:	90 81 00 14 	stw     r4,20(r1)
    1ff8:	48 00 00 01 	bl      1ff8 <ApcInitNode+0x18b4>
    1ffc:	2c 83 00 00 	cmpwi   cr1,r3,0
    2000:	40 86 57 58 	bne-    cr1,7758 <ApcInitNode+0x7014>
    2004:	38 00 01 29 	li      r0,297
    2008:	3b e0 00 00 	li      r31,0
    200c:	38 61 19 50 	addi    r3,r1,6480
    2010:	90 01 19 50 	stw     r0,6480(r1)
    2014:	93 e1 19 54 	stw     r31,6484(r1)
    2018:	90 01 00 10 	stw     r0,16(r1)
    201c:	93 e1 00 14 	stw     r31,20(r1)
    2020:	48 00 00 01 	bl      2020 <ApcInitNode+0x18dc>
    2024:	2f 03 00 00 	cmpwi   cr6,r3,0
    2028:	40 9a 57 04 	bne-    cr6,772c <ApcInitNode+0x6fe8>
    202c:	38 a0 01 35 	li      r5,309
    2030:	38 80 00 00 	li      r4,0
    2034:	38 61 19 60 	addi    r3,r1,6496
    2038:	90 a1 19 60 	stw     r5,6496(r1)
    203c:	90 81 19 64 	stw     r4,6500(r1)
    2040:	90 a1 00 10 	stw     r5,16(r1)
    2044:	90 81 00 14 	stw     r4,20(r1)
    2048:	48 00 00 01 	bl      2048 <ApcInitNode+0x1904>
    204c:	2f 83 00 00 	cmpwi   cr7,r3,0
    2050:	40 9e 56 b0 	bne-    cr7,7700 <ApcInitNode+0x6fbc>
    2054:	38 00 01 41 	li      r0,321
    2058:	3b e0 00 00 	li      r31,0
    205c:	38 61 19 70 	addi    r3,r1,6512
    2060:	90 01 19 70 	stw     r0,6512(r1)
    2064:	90 01 00 10 	stw     r0,16(r1)
    2068:	93 e1 00 14 	stw     r31,20(r1)
    206c:	93 e1 19 74 	stw     r31,6516(r1)
    2070:	48 00 00 01 	bl      2070 <ApcInitNode+0x192c>
    2074:	2c 03 00 00 	cmpwi   r3,0
    2078:	40 82 56 5c 	bne-    76d4 <ApcInitNode+0x6f90>
    207c:	38 80 00 e1 	li      r4,225
    2080:	38 61 19 80 	addi    r3,r1,6528
    2084:	90 81 19 80 	stw     r4,6528(r1)
    2088:	90 81 00 10 	stw     r4,16(r1)
    208c:	93 e1 00 14 	stw     r31,20(r1)
    2090:	93 e1 19 84 	stw     r31,6532(r1)
    2094:	48 00 00 01 	bl      2094 <ApcInitNode+0x1950>
    2098:	2c 83 00 00 	cmpwi   cr1,r3,0
    209c:	40 86 56 0c 	bne-    cr1,76a8 <ApcInitNode+0x6f64>
    20a0:	38 00 00 e2 	li      r0,226
    20a4:	38 61 19 90 	addi    r3,r1,6544
    20a8:	90 01 19 90 	stw     r0,6544(r1)
    20ac:	90 01 00 10 	stw     r0,16(r1)
    20b0:	93 e1 00 14 	stw     r31,20(r1)
    20b4:	93 e1 19 94 	stw     r31,6548(r1)
    20b8:	48 00 00 01 	bl      20b8 <ApcInitNode+0x1974>
    20bc:	2f 03 00 00 	cmpwi   cr6,r3,0
    20c0:	40 9a 55 bc 	bne-    cr6,767c <ApcInitNode+0x6f38>
    20c4:	38 80 00 e3 	li      r4,227
    20c8:	38 61 19 a0 	addi    r3,r1,6560
    20cc:	90 81 19 a0 	stw     r4,6560(r1)
    20d0:	90 81 00 10 	stw     r4,16(r1)
    20d4:	93 e1 00 14 	stw     r31,20(r1)
    20d8:	93 e1 19 a4 	stw     r31,6564(r1)
    20dc:	48 00 00 01 	bl      20dc <ApcInitNode+0x1998>
    20e0:	2f 83 00 00 	cmpwi   cr7,r3,0
    20e4:	40 9e 55 6c 	bne-    cr7,7650 <ApcInitNode+0x6f0c>
    20e8:	38 00 00 db 	li      r0,219
    20ec:	38 61 19 b0 	addi    r3,r1,6576
    20f0:	90 01 19 b0 	stw     r0,6576(r1)
    20f4:	90 01 00 10 	stw     r0,16(r1)
    20f8:	93 e1 00 14 	stw     r31,20(r1)
    20fc:	93 e1 19 b4 	stw     r31,6580(r1)
    2100:	48 00 00 01 	bl      2100 <ApcInitNode+0x19bc>
    2104:	2c 03 00 00 	cmpwi   r3,0
    2108:	40 82 55 1c 	bne-    7624 <ApcInitNode+0x6ee0>
    210c:	38 80 00 df 	li      r4,223
    2110:	38 61 19 c0 	addi    r3,r1,6592
    2114:	90 81 19 c0 	stw     r4,6592(r1)
    2118:	90 81 00 10 	stw     r4,16(r1)
    211c:	93 e1 00 14 	stw     r31,20(r1)
    2120:	93 e1 19 c4 	stw     r31,6596(r1)
    2124:	48 00 00 01 	bl      2124 <ApcInitNode+0x19e0>
    2128:	2c 83 00 00 	cmpwi   cr1,r3,0
    212c:	40 86 47 60 	bne-    cr1,688c <ApcInitNode+0x6148>
    2130:	38 00 00 d9 	li      r0,217
    2134:	38 61 19 d0 	addi    r3,r1,6608
    2138:	90 01 19 d0 	stw     r0,6608(r1)
    213c:	90 01 00 10 	stw     r0,16(r1)
    2140:	93 e1 00 14 	stw     r31,20(r1)
    2144:	93 e1 19 d4 	stw     r31,6612(r1)
    2148:	48 00 00 01 	bl      2148 <ApcInitNode+0x1a04>
    214c:	2f 03 00 00 	cmpwi   cr6,r3,0
    2150:	40 9a 47 10 	bne-    cr6,6860 <ApcInitNode+0x611c>
    2154:	38 80 00 dc 	li      r4,220
    2158:	38 61 19 e0 	addi    r3,r1,6624
    215c:	90 81 19 e0 	stw     r4,6624(r1)
    2160:	90 81 00 10 	stw     r4,16(r1)
    2164:	93 e1 00 14 	stw     r31,20(r1)
    2168:	93 e1 19 e4 	stw     r31,6628(r1)
    216c:	48 00 00 01 	bl      216c <ApcInitNode+0x1a28>
    2170:	2f 83 00 00 	cmpwi   cr7,r3,0
    2174:	40 9e 46 c0 	bne-    cr7,6834 <ApcInitNode+0x60f0>
    2178:	38 00 00 da 	li      r0,218
    217c:	38 61 19 f0 	addi    r3,r1,6640
    2180:	90 01 19 f0 	stw     r0,6640(r1)
    2184:	90 01 00 10 	stw     r0,16(r1)
    2188:	93 e1 00 14 	stw     r31,20(r1)
    218c:	93 e1 19 f4 	stw     r31,6644(r1)
    2190:	48 00 00 01 	bl      2190 <ApcInitNode+0x1a4c>
    2194:	2c 03 00 00 	cmpwi   r3,0
    2198:	40 82 46 70 	bne-    6808 <ApcInitNode+0x60c4>
    219c:	38 80 00 de 	li      r4,222
    21a0:	38 61 1a 00 	addi    r3,r1,6656
    21a4:	90 81 1a 00 	stw     r4,6656(r1)
    21a8:	93 e1 1a 04 	stw     r31,6660(r1)
    21ac:	90 81 00 10 	stw     r4,16(r1)
    21b0:	93 e1 00 14 	stw     r31,20(r1)
    21b4:	48 00 00 01 	bl      21b4 <ApcInitNode+0x1a70>
    21b8:	2c 83 00 00 	cmpwi   cr1,r3,0
    21bc:	40 86 6e 88 	bne-    cr1,9044 <ApcInitNode+0x8900>
    21c0:	38 00 01 47 	li      r0,327
    21c4:	39 20 00 03 	li      r9,3
    21c8:	38 61 1a 10 	addi    r3,r1,6672
    21cc:	90 01 1a 10 	stw     r0,6672(r1)
    21d0:	91 21 1a 14 	stw     r9,6676(r1)
    21d4:	4b ff ec 50 	b       e24 <ApcInitNode+0x6e0>
    21d8:	39 80 00 01 	li      r12,1
    21dc:	38 80 00 00 	li      r4,0
    21e0:	38 61 12 c0 	addi    r3,r1,4800
    21e4:	91 81 12 c0 	stw     r12,4800(r1)
    21e8:	90 81 12 c4 	stw     r4,4804(r1)
    21ec:	91 81 00 10 	stw     r12,16(r1)
    21f0:	90 81 00 14 	stw     r4,20(r1)
    21f4:	48 00 00 01 	bl      21f4 <ApcInitNode+0x1ab0>
    21f8:	2c 83 00 00 	cmpwi   cr1,r3,0
    21fc:	40 86 53 fc 	bne-    cr1,75f8 <ApcInitNode+0x6eb4>
    2200:	38 00 00 05 	li      r0,5
    2204:	39 00 00 00 	li      r8,0
    2208:	38 61 12 d0 	addi    r3,r1,4816
    220c:	90 01 12 d0 	stw     r0,4816(r1)
    2210:	91 01 12 d4 	stw     r8,4820(r1)
    2214:	90 01 00 10 	stw     r0,16(r1)
    2218:	91 01 00 14 	stw     r8,20(r1)
    221c:	48 00 00 01 	bl      221c <ApcInitNode+0x1ad8>
    2220:	2f 03 00 00 	cmpwi   cr6,r3,0
    2224:	40 9a 53 a8 	bne-    cr6,75cc <ApcInitNode+0x6e88>
    2228:	38 e0 00 09 	li      r7,9
    222c:	38 80 00 00 	li      r4,0
    2230:	38 61 12 e0 	addi    r3,r1,4832
    2234:	90 e1 12 e0 	stw     r7,4832(r1)
    2238:	90 81 12 e4 	stw     r4,4836(r1)
    223c:	90 e1 00 10 	stw     r7,16(r1)
    2240:	90 81 00 14 	stw     r4,20(r1)
    2244:	48 00 00 01 	bl      2244 <ApcInitNode+0x1b00>
    2248:	2f 83 00 00 	cmpwi   cr7,r3,0
    224c:	40 9e 53 54 	bne-    cr7,75a0 <ApcInitNode+0x6e5c>
    2250:	38 00 00 0d 	li      r0,13
    2254:	39 40 00 00 	li      r10,0
    2258:	38 61 12 f0 	addi    r3,r1,4848
    225c:	90 01 12 f0 	stw     r0,4848(r1)
    2260:	91 41 12 f4 	stw     r10,4852(r1)
    2264:	90 01 00 10 	stw     r0,16(r1)
    2268:	91 41 00 14 	stw     r10,20(r1)
    226c:	48 00 00 01 	bl      226c <ApcInitNode+0x1b28>
    2270:	2c 03 00 00 	cmpwi   r3,0
    2274:	40 82 53 00 	bne-    7574 <ApcInitNode+0x6e30>
    2278:	3b e0 00 ad 	li      r31,173
    227c:	38 80 00 00 	li      r4,0
    2280:	38 61 13 00 	addi    r3,r1,4864
    2284:	93 e1 13 00 	stw     r31,4864(r1)
    2288:	90 81 13 04 	stw     r4,4868(r1)
    228c:	93 e1 00 10 	stw     r31,16(r1)
    2290:	90 81 00 14 	stw     r4,20(r1)
    2294:	48 00 00 01 	bl      2294 <ApcInitNode+0x1b50>
    2298:	2c 83 00 00 	cmpwi   cr1,r3,0
    229c:	40 86 52 ac 	bne-    cr1,7548 <ApcInitNode+0x6e04>
    22a0:	38 00 00 ab 	li      r0,171
    22a4:	39 80 00 00 	li      r12,0
    22a8:	38 61 13 10 	addi    r3,r1,4880
    22ac:	90 01 13 10 	stw     r0,4880(r1)
    22b0:	91 81 13 14 	stw     r12,4884(r1)
    22b4:	90 01 00 10 	stw     r0,16(r1)
    22b8:	91 81 00 14 	stw     r12,20(r1)
    22bc:	48 00 00 01 	bl      22bc <ApcInitNode+0x1b78>
    22c0:	2f 03 00 00 	cmpwi   cr6,r3,0
    22c4:	40 9a 52 58 	bne-    cr6,751c <ApcInitNode+0x6dd8>
    22c8:	39 60 01 05 	li      r11,261
    22cc:	38 80 00 00 	li      r4,0
    22d0:	38 61 13 20 	addi    r3,r1,4896
    22d4:	91 61 13 20 	stw     r11,4896(r1)
    22d8:	90 81 13 24 	stw     r4,4900(r1)
    22dc:	91 61 00 10 	stw     r11,16(r1)
    22e0:	90 81 00 14 	stw     r4,20(r1)
    22e4:	48 00 00 01 	bl      22e4 <ApcInitNode+0x1ba0>
    22e8:	2f 83 00 00 	cmpwi   cr7,r3,0
    22ec:	40 9e 52 04 	bne-    cr7,74f0 <ApcInitNode+0x6dac>
    22f0:	38 00 01 11 	li      r0,273
    22f4:	38 e0 00 00 	li      r7,0
    22f8:	38 61 13 30 	addi    r3,r1,4912
    22fc:	90 01 13 30 	stw     r0,4912(r1)
    2300:	90 e1 13 34 	stw     r7,4916(r1)
    2304:	90 01 00 10 	stw     r0,16(r1)
    2308:	90 e1 00 14 	stw     r7,20(r1)
    230c:	48 00 00 01 	bl      230c <ApcInitNode+0x1bc8>
    2310:	2c 03 00 00 	cmpwi   r3,0
    2314:	40 82 51 b0 	bne-    74c4 <ApcInitNode+0x6d80>
    2318:	38 a0 01 1d 	li      r5,285
    231c:	38 80 00 00 	li      r4,0
    2320:	38 61 13 40 	addi    r3,r1,4928
    2324:	90 a1 13 40 	stw     r5,4928(r1)
    2328:	90 81 13 44 	stw     r4,4932(r1)
    232c:	90 a1 00 10 	stw     r5,16(r1)
    2330:	90 81 00 14 	stw     r4,20(r1)
    2334:	48 00 00 01 	bl      2334 <ApcInitNode+0x1bf0>
    2338:	2c 83 00 00 	cmpwi   cr1,r3,0
    233c:	40 86 51 5c 	bne-    cr1,7498 <ApcInitNode+0x6d54>
    2340:	38 00 01 29 	li      r0,297
    2344:	39 00 00 00 	li      r8,0
    2348:	38 61 13 50 	addi    r3,r1,4944
    234c:	90 01 13 50 	stw     r0,4944(r1)
    2350:	91 01 13 54 	stw     r8,4948(r1)
    2354:	90 01 00 10 	stw     r0,16(r1)
    2358:	91 01 00 14 	stw     r8,20(r1)
    235c:	48 00 00 01 	bl      235c <ApcInitNode+0x1c18>
    2360:	2f 03 00 00 	cmpwi   cr6,r3,0
    2364:	40 9a 51 08 	bne-    cr6,746c <ApcInitNode+0x6d28>
    2368:	39 80 01 35 	li      r12,309
    236c:	38 80 00 00 	li      r4,0
    2370:	38 61 13 60 	addi    r3,r1,4960
    2374:	91 81 13 60 	stw     r12,4960(r1)
    2378:	90 81 13 64 	stw     r4,4964(r1)
    237c:	91 81 00 10 	stw     r12,16(r1)
    2380:	90 81 00 14 	stw     r4,20(r1)
    2384:	48 00 00 01 	bl      2384 <ApcInitNode+0x1c40>
    2388:	2f 83 00 00 	cmpwi   cr7,r3,0
    238c:	40 9e 50 b4 	bne-    cr7,7440 <ApcInitNode+0x6cfc>
    2390:	38 00 01 41 	li      r0,321
    2394:	39 40 00 00 	li      r10,0
    2398:	38 61 13 70 	addi    r3,r1,4976
    239c:	90 01 13 70 	stw     r0,4976(r1)
    23a0:	91 41 13 74 	stw     r10,4980(r1)
    23a4:	90 01 00 10 	stw     r0,16(r1)
    23a8:	91 41 00 14 	stw     r10,20(r1)
    23ac:	48 00 00 01 	bl      23ac <ApcInitNode+0x1c68>
    23b0:	2c 03 00 00 	cmpwi   r3,0
    23b4:	40 82 50 60 	bne-    7414 <ApcInitNode+0x6cd0>
    23b8:	38 e0 00 ac 	li      r7,172
    23bc:	38 80 00 00 	li      r4,0
    23c0:	38 61 13 80 	addi    r3,r1,4992
    23c4:	90 e1 13 80 	stw     r7,4992(r1)
    23c8:	90 81 13 84 	stw     r4,4996(r1)
    23cc:	90 e1 00 10 	stw     r7,16(r1)
    23d0:	90 81 00 14 	stw     r4,20(r1)
    23d4:	48 00 00 01 	bl      23d4 <ApcInitNode+0x1c90>
    23d8:	2c 83 00 00 	cmpwi   cr1,r3,0
    23dc:	40 86 50 0c 	bne-    cr1,73e8 <ApcInitNode+0x6ca4>
    23e0:	38 00 00 a5 	li      r0,165
    23e4:	3b e0 00 00 	li      r31,0
    23e8:	38 61 13 90 	addi    r3,r1,5008
    23ec:	90 01 13 90 	stw     r0,5008(r1)
    23f0:	90 01 00 10 	stw     r0,16(r1)
    23f4:	93 e1 00 14 	stw     r31,20(r1)
    23f8:	93 e1 13 94 	stw     r31,5012(r1)
    23fc:	48 00 00 01 	bl      23fc <ApcInitNode+0x1cb8>
    2400:	2f 03 00 00 	cmpwi   cr6,r3,0
    2404:	40 9a 4f b8 	bne-    cr6,73bc <ApcInitNode+0x6c78>
    2408:	38 80 00 a6 	li      r4,166
    240c:	38 61 13 a0 	addi    r3,r1,5024
    2410:	90 81 13 a0 	stw     r4,5024(r1)
    2414:	90 81 00 10 	stw     r4,16(r1)
    2418:	93 e1 00 14 	stw     r31,20(r1)
    241c:	93 e1 13 a4 	stw     r31,5028(r1)
    2420:	48 00 00 01 	bl      2420 <ApcInitNode+0x1cdc>
    2424:	2f 83 00 00 	cmpwi   cr7,r3,0
    2428:	40 9e 4f 68 	bne-    cr7,7390 <ApcInitNode+0x6c4c>
    242c:	38 00 00 af 	li      r0,175
    2430:	38 61 13 b0 	addi    r3,r1,5040
    2434:	90 01 13 b0 	stw     r0,5040(r1)
    2438:	90 01 00 10 	stw     r0,16(r1)
    243c:	93 e1 00 14 	stw     r31,20(r1)
    2440:	93 e1 13 b4 	stw     r31,5044(r1)
    2444:	48 00 00 01 	bl      2444 <ApcInitNode+0x1d00>
    2448:	2c 03 00 00 	cmpwi   r3,0
    244c:	40 82 4f 18 	bne-    7364 <ApcInitNode+0x6c20>
    2450:	38 80 00 a7 	li      r4,167
    2454:	38 61 13 c0 	addi    r3,r1,5056
    2458:	90 81 13 c0 	stw     r4,5056(r1)
    245c:	90 81 00 10 	stw     r4,16(r1)
    2460:	93 e1 00 14 	stw     r31,20(r1)
    2464:	93 e1 13 c4 	stw     r31,5060(r1)
    2468:	48 00 00 01 	bl      2468 <ApcInitNode+0x1d24>
    246c:	2c 83 00 00 	cmpwi   cr1,r3,0
    2470:	40 86 54 f8 	bne-    cr1,7968 <ApcInitNode+0x7224>
    2474:	38 00 00 a1 	li      r0,161
    2478:	38 61 13 d0 	addi    r3,r1,5072
    247c:	90 01 13 d0 	stw     r0,5072(r1)
    2480:	90 01 00 10 	stw     r0,16(r1)
    2484:	93 e1 00 14 	stw     r31,20(r1)
    2488:	93 e1 13 d4 	stw     r31,5076(r1)
    248c:	48 00 00 01 	bl      248c <ApcInitNode+0x1d48>
    2490:	2f 03 00 00 	cmpwi   cr6,r3,0
    2494:	40 9a 54 a8 	bne-    cr6,793c <ApcInitNode+0x71f8>
    2498:	38 80 00 a3 	li      r4,163
    249c:	38 61 13 e0 	addi    r3,r1,5088
    24a0:	90 81 13 e0 	stw     r4,5088(r1)
    24a4:	90 81 00 10 	stw     r4,16(r1)
    24a8:	93 e1 00 14 	stw     r31,20(r1)
    24ac:	93 e1 13 e4 	stw     r31,5092(r1)
    24b0:	48 00 00 01 	bl      24b0 <ApcInitNode+0x1d6c>
    24b4:	2f 83 00 00 	cmpwi   cr7,r3,0
    24b8:	40 9e 54 58 	bne-    cr7,7910 <ApcInitNode+0x71cc>
    24bc:	38 00 00 a9 	li      r0,169
    24c0:	38 61 13 f0 	addi    r3,r1,5104
    24c4:	90 01 13 f0 	stw     r0,5104(r1)
    24c8:	90 01 00 10 	stw     r0,16(r1)
    24cc:	93 e1 00 14 	stw     r31,20(r1)
    24d0:	93 e1 13 f4 	stw     r31,5108(r1)
    24d4:	48 00 00 01 	bl      24d4 <ApcInitNode+0x1d90>
    24d8:	2c 03 00 00 	cmpwi   r3,0
    24dc:	40 82 54 08 	bne-    78e4 <ApcInitNode+0x71a0>
    24e0:	38 80 00 a2 	li      r4,162
    24e4:	38 61 14 00 	addi    r3,r1,5120
    24e8:	90 81 14 00 	stw     r4,5120(r1)
    24ec:	90 81 00 10 	stw     r4,16(r1)
    24f0:	93 e1 00 14 	stw     r31,20(r1)
    24f4:	93 e1 14 04 	stw     r31,5124(r1)
    24f8:	48 00 00 01 	bl      24f8 <ApcInitNode+0x1db4>
    24fc:	2c 83 00 00 	cmpwi   cr1,r3,0
    2500:	40 86 54 c0 	bne-    cr1,79c0 <ApcInitNode+0x727c>
    2504:	38 00 00 a4 	li      r0,164
    2508:	38 61 14 10 	addi    r3,r1,5136
    250c:	90 01 14 10 	stw     r0,5136(r1)
    2510:	90 01 00 10 	stw     r0,16(r1)
    2514:	93 e1 00 14 	stw     r31,20(r1)
    2518:	93 e1 14 14 	stw     r31,5140(r1)
    251c:	48 00 00 01 	bl      251c <ApcInitNode+0x1dd8>
    2520:	2f 03 00 00 	cmpwi   cr6,r3,0
    2524:	40 9a 54 70 	bne-    cr6,7994 <ApcInitNode+0x7250>
    2528:	38 80 00 aa 	li      r4,170
    252c:	38 61 14 20 	addi    r3,r1,5152
    2530:	90 81 14 20 	stw     r4,5152(r1)
    2534:	93 e1 14 24 	stw     r31,5156(r1)
    2538:	90 81 00 10 	stw     r4,16(r1)
    253c:	93 e1 00 14 	stw     r31,20(r1)
    2540:	48 00 00 01 	bl      2540 <ApcInitNode+0x1dfc>
    2544:	2f 83 00 00 	cmpwi   cr7,r3,0
    2548:	40 9e 6b 28 	bne-    cr7,9070 <ApcInitNode+0x892c>
    254c:	38 00 01 47 	li      r0,327
    2550:	39 20 00 03 	li      r9,3
    2554:	38 61 14 30 	addi    r3,r1,5168
    2558:	90 01 14 30 	stw     r0,5168(r1)
    255c:	91 21 14 34 	stw     r9,5172(r1)
    2560:	4b ff e8 c4 	b       e24 <ApcInitNode+0x6e0>
    2564:	39 80 00 03 	li      r12,3
    2568:	38 80 00 00 	li      r4,0
    256c:	38 61 0f 00 	addi    r3,r1,3840
    2570:	91 81 0f 00 	stw     r12,3840(r1)
    2574:	90 81 0f 04 	stw     r4,3844(r1)
    2578:	91 81 00 10 	stw     r12,16(r1)
    257c:	90 81 00 14 	stw     r4,20(r1)
    2580:	48 00 00 01 	bl      2580 <ApcInitNode+0x1e3c>
    2584:	2f 83 00 00 	cmpwi   cr7,r3,0
    2588:	40 9e 69 30 	bne-    cr7,8eb8 <ApcInitNode+0x8774>
    258c:	38 00 00 07 	li      r0,7
    2590:	39 00 00 00 	li      r8,0
    2594:	38 61 0f 10 	addi    r3,r1,3856
    2598:	90 01 0f 10 	stw     r0,3856(r1)
    259c:	91 01 0f 14 	stw     r8,3860(r1)
    25a0:	90 01 00 10 	stw     r0,16(r1)
    25a4:	91 01 00 14 	stw     r8,20(r1)
    25a8:	48 00 00 01 	bl      25a8 <ApcInitNode+0x1e64>
    25ac:	2c 03 00 00 	cmpwi   r3,0
    25b0:	40 82 68 dc 	bne-    8e8c <ApcInitNode+0x8748>
    25b4:	38 e0 00 0b 	li      r7,11
    25b8:	38 80 00 00 	li      r4,0
    25bc:	38 61 0f 20 	addi    r3,r1,3872
    25c0:	90 e1 0f 20 	stw     r7,3872(r1)
    25c4:	90 81 0f 24 	stw     r4,3876(r1)
    25c8:	90 e1 00 10 	stw     r7,16(r1)
    25cc:	90 81 00 14 	stw     r4,20(r1)
    25d0:	48 00 00 01 	bl      25d0 <ApcInitNode+0x1e8c>
    25d4:	2c 83 00 00 	cmpwi   cr1,r3,0
    25d8:	40 86 68 88 	bne-    cr1,8e60 <ApcInitNode+0x871c>
    25dc:	38 00 00 0f 	li      r0,15
    25e0:	39 40 00 00 	li      r10,0
    25e4:	38 61 0f 30 	addi    r3,r1,3888
    25e8:	90 01 0f 30 	stw     r0,3888(r1)
    25ec:	91 41 0f 34 	stw     r10,3892(r1)
    25f0:	90 01 00 10 	stw     r0,16(r1)
    25f4:	91 41 00 14 	stw     r10,20(r1)
    25f8:	48 00 00 01 	bl      25f8 <ApcInitNode+0x1eb4>
    25fc:	2f 03 00 00 	cmpwi   cr6,r3,0
    2600:	40 9a 68 34 	bne-    cr6,8e34 <ApcInitNode+0x86f0>
    2604:	3b e0 01 05 	li      r31,261
    2608:	38 80 00 00 	li      r4,0
    260c:	38 61 0f 40 	addi    r3,r1,3904
    2610:	93 e1 0f 40 	stw     r31,3904(r1)
    2614:	90 81 0f 44 	stw     r4,3908(r1)
    2618:	93 e1 00 10 	stw     r31,16(r1)
    261c:	90 81 00 14 	stw     r4,20(r1)
    2620:	48 00 00 01 	bl      2620 <ApcInitNode+0x1edc>
    2624:	2f 83 00 00 	cmpwi   cr7,r3,0
    2628:	40 9e 67 e0 	bne-    cr7,8e08 <ApcInitNode+0x86c4>
    262c:	38 00 01 11 	li      r0,273
    2630:	39 80 00 00 	li      r12,0
    2634:	38 61 0f 50 	addi    r3,r1,3920
    2638:	90 01 0f 50 	stw     r0,3920(r1)
    263c:	91 81 0f 54 	stw     r12,3924(r1)
    2640:	90 01 00 10 	stw     r0,16(r1)
    2644:	91 81 00 14 	stw     r12,20(r1)
    2648:	48 00 00 01 	bl      2648 <ApcInitNode+0x1f04>
    264c:	2c 03 00 00 	cmpwi   r3,0
    2650:	40 82 67 8c 	bne-    8ddc <ApcInitNode+0x8698>
    2654:	39 60 01 1d 	li      r11,285
    2658:	38 80 00 00 	li      r4,0
    265c:	38 61 0f 60 	addi    r3,r1,3936
    2660:	91 61 0f 60 	stw     r11,3936(r1)
    2664:	90 81 0f 64 	stw     r4,3940(r1)
    2668:	91 61 00 10 	stw     r11,16(r1)
    266c:	90 81 00 14 	stw     r4,20(r1)
    2670:	48 00 00 01 	bl      2670 <ApcInitNode+0x1f2c>
    2674:	2c 83 00 00 	cmpwi   cr1,r3,0
    2678:	40 86 67 38 	bne-    cr1,8db0 <ApcInitNode+0x866c>
    267c:	38 00 01 29 	li      r0,297
    2680:	38 e0 00 00 	li      r7,0
    2684:	38 61 0f 70 	addi    r3,r1,3952
    2688:	90 01 0f 70 	stw     r0,3952(r1)
    268c:	90 e1 0f 74 	stw     r7,3956(r1)
    2690:	90 01 00 10 	stw     r0,16(r1)
    2694:	90 e1 00 14 	stw     r7,20(r1)
    2698:	48 00 00 01 	bl      2698 <ApcInitNode+0x1f54>
    269c:	2f 03 00 00 	cmpwi   cr6,r3,0
    26a0:	40 9a 66 e4 	bne-    cr6,8d84 <ApcInitNode+0x8640>
    26a4:	38 a0 01 35 	li      r5,309
    26a8:	38 80 00 00 	li      r4,0
    26ac:	38 61 0f 80 	addi    r3,r1,3968
    26b0:	90 a1 0f 80 	stw     r5,3968(r1)
    26b4:	90 81 0f 84 	stw     r4,3972(r1)
    26b8:	90 a1 00 10 	stw     r5,16(r1)
    26bc:	90 81 00 14 	stw     r4,20(r1)
    26c0:	48 00 00 01 	bl      26c0 <ApcInitNode+0x1f7c>
    26c4:	2f 83 00 00 	cmpwi   cr7,r3,0
    26c8:	40 9e 66 90 	bne-    cr7,8d58 <ApcInitNode+0x8614>
    26cc:	38 00 01 41 	li      r0,321
    26d0:	39 00 00 00 	li      r8,0
    26d4:	38 61 0f 90 	addi    r3,r1,3984
    26d8:	90 01 0f 90 	stw     r0,3984(r1)
    26dc:	91 01 0f 94 	stw     r8,3988(r1)
    26e0:	90 01 00 10 	stw     r0,16(r1)
    26e4:	91 01 00 14 	stw     r8,20(r1)
    26e8:	48 00 00 01 	bl      26e8 <ApcInitNode+0x1fa4>
    26ec:	2c 03 00 00 	cmpwi   r3,0
    26f0:	40 82 66 3c 	bne-    8d2c <ApcInitNode+0x85e8>
    26f4:	39 80 00 94 	li      r12,148
    26f8:	38 80 00 00 	li      r4,0
    26fc:	38 61 0f a0 	addi    r3,r1,4000
    2700:	91 81 0f a0 	stw     r12,4000(r1)
    2704:	90 81 0f a4 	stw     r4,4004(r1)
    2708:	91 81 00 10 	stw     r12,16(r1)
    270c:	90 81 00 14 	stw     r4,20(r1)
    2710:	48 00 00 01 	bl      2710 <ApcInitNode+0x1fcc>
    2714:	2c 83 00 00 	cmpwi   cr1,r3,0
    2718:	40 86 65 e8 	bne-    cr1,8d00 <ApcInitNode+0x85bc>
    271c:	38 00 00 91 	li      r0,145
    2720:	39 40 00 00 	li      r10,0
    2724:	38 61 0f b0 	addi    r3,r1,4016
    2728:	90 01 0f b0 	stw     r0,4016(r1)
    272c:	91 41 0f b4 	stw     r10,4020(r1)
    2730:	90 01 00 10 	stw     r0,16(r1)
    2734:	91 41 00 14 	stw     r10,20(r1)
    2738:	48 00 00 01 	bl      2738 <ApcInitNode+0x1ff4>
    273c:	2f 03 00 00 	cmpwi   cr6,r3,0
    2740:	40 9a 65 94 	bne-    cr6,8cd4 <ApcInitNode+0x8590>
    2744:	38 e0 00 95 	li      r7,149
    2748:	38 80 00 00 	li      r4,0
    274c:	38 61 0f c0 	addi    r3,r1,4032
    2750:	90 e1 0f c0 	stw     r7,4032(r1)
    2754:	90 81 0f c4 	stw     r4,4036(r1)
    2758:	90 e1 00 10 	stw     r7,16(r1)
    275c:	90 81 00 14 	stw     r4,20(r1)
    2760:	48 00 00 01 	bl      2760 <ApcInitNode+0x201c>
    2764:	2f 83 00 00 	cmpwi   cr7,r3,0
    2768:	40 9e 65 40 	bne-    cr7,8ca8 <ApcInitNode+0x8564>
    276c:	38 00 00 98 	li      r0,152
    2770:	38 a0 00 00 	li      r5,0
    2774:	38 61 0f d0 	addi    r3,r1,4048
    2778:	90 01 0f d0 	stw     r0,4048(r1)
    277c:	90 a1 0f d4 	stw     r5,4052(r1)
    2780:	90 01 00 10 	stw     r0,16(r1)
    2784:	90 a1 00 14 	stw     r5,20(r1)
    2788:	48 00 00 01 	bl      2788 <ApcInitNode+0x2044>
    278c:	2c 03 00 00 	cmpwi   r3,0
    2790:	40 82 64 ec 	bne-    8c7c <ApcInitNode+0x8538>
    2794:	39 00 00 6f 	li      r8,111
    2798:	38 80 00 00 	li      r4,0
    279c:	38 61 0f e0 	addi    r3,r1,4064
    27a0:	91 01 0f e0 	stw     r8,4064(r1)
    27a4:	90 81 0f e4 	stw     r4,4068(r1)
    27a8:	91 01 00 10 	stw     r8,16(r1)
    27ac:	90 81 00 14 	stw     r4,20(r1)
    27b0:	48 00 00 01 	bl      27b0 <ApcInitNode+0x206c>
    27b4:	2c 83 00 00 	cmpwi   cr1,r3,0
    27b8:	40 86 64 98 	bne-    cr1,8c50 <ApcInitNode+0x850c>
    27bc:	38 00 00 6e 	li      r0,110
    27c0:	39 80 00 00 	li      r12,0
    27c4:	38 61 0f f0 	addi    r3,r1,4080
    27c8:	90 01 0f f0 	stw     r0,4080(r1)
    27cc:	91 81 0f f4 	stw     r12,4084(r1)
    27d0:	90 01 00 10 	stw     r0,16(r1)
    27d4:	91 81 00 14 	stw     r12,20(r1)
    27d8:	48 00 00 01 	bl      27d8 <ApcInitNode+0x2094>
    27dc:	2f 03 00 00 	cmpwi   cr6,r3,0
    27e0:	40 9a 64 44 	bne-    cr6,8c24 <ApcInitNode+0x84e0>
    27e4:	39 40 00 72 	li      r10,114
    27e8:	38 80 00 00 	li      r4,0
    27ec:	38 61 10 00 	addi    r3,r1,4096
    27f0:	91 41 10 00 	stw     r10,4096(r1)
    27f4:	90 81 10 04 	stw     r4,4100(r1)
    27f8:	91 41 00 10 	stw     r10,16(r1)
    27fc:	90 81 00 14 	stw     r4,20(r1)
    2800:	48 00 00 01 	bl      2800 <ApcInitNode+0x20bc>
    2804:	2f 83 00 00 	cmpwi   cr7,r3,0
    2808:	40 9e 63 f0 	bne-    cr7,8bf8 <ApcInitNode+0x84b4>
    280c:	38 00 00 6d 	li      r0,109
    2810:	38 e0 00 00 	li      r7,0
    2814:	38 61 10 10 	addi    r3,r1,4112
    2818:	90 01 10 10 	stw     r0,4112(r1)
    281c:	90 e1 10 14 	stw     r7,4116(r1)
    2820:	90 01 00 10 	stw     r0,16(r1)
    2824:	90 e1 00 14 	stw     r7,20(r1)
    2828:	48 00 00 01 	bl      2828 <ApcInitNode+0x20e4>
    282c:	2c 03 00 00 	cmpwi   r3,0
    2830:	40 82 63 9c 	bne-    8bcc <ApcInitNode+0x8488>
    2834:	38 a0 00 71 	li      r5,113
    2838:	38 80 00 00 	li      r4,0
    283c:	38 61 10 20 	addi    r3,r1,4128
    2840:	90 a1 10 20 	stw     r5,4128(r1)
    2844:	90 81 10 24 	stw     r4,4132(r1)
    2848:	90 a1 00 10 	stw     r5,16(r1)
    284c:	90 81 00 14 	stw     r4,20(r1)
    2850:	48 00 00 01 	bl      2850 <ApcInitNode+0x210c>
    2854:	2c 83 00 00 	cmpwi   cr1,r3,0
    2858:	40 86 63 48 	bne-    cr1,8ba0 <ApcInitNode+0x845c>
    285c:	38 00 00 8a 	li      r0,138
    2860:	39 00 00 00 	li      r8,0
    2864:	38 61 10 30 	addi    r3,r1,4144
    2868:	90 01 10 30 	stw     r0,4144(r1)
    286c:	91 01 10 34 	stw     r8,4148(r1)
    2870:	90 01 00 10 	stw     r0,16(r1)
    2874:	91 01 00 14 	stw     r8,20(r1)
    2878:	48 00 00 01 	bl      2878 <ApcInitNode+0x2134>
    287c:	2f 03 00 00 	cmpwi   cr6,r3,0
    2880:	40 9a 62 f4 	bne-    cr6,8b74 <ApcInitNode+0x8430>
    2884:	39 80 00 8b 	li      r12,139
    2888:	38 80 00 00 	li      r4,0
    288c:	38 61 10 40 	addi    r3,r1,4160
    2890:	91 81 10 40 	stw     r12,4160(r1)
    2894:	90 81 10 44 	stw     r4,4164(r1)
    2898:	91 81 00 10 	stw     r12,16(r1)
    289c:	90 81 00 14 	stw     r4,20(r1)
    28a0:	48 00 00 01 	bl      28a0 <ApcInitNode+0x215c>
    28a4:	2f 83 00 00 	cmpwi   cr7,r3,0
    28a8:	40 9e 62 a0 	bne-    cr7,8b48 <ApcInitNode+0x8404>
    28ac:	38 00 00 8c 	li      r0,140
    28b0:	39 40 00 00 	li      r10,0
    28b4:	38 61 10 50 	addi    r3,r1,4176
    28b8:	90 01 10 50 	stw     r0,4176(r1)
    28bc:	91 41 10 54 	stw     r10,4180(r1)
    28c0:	90 01 00 10 	stw     r0,16(r1)
    28c4:	91 41 00 14 	stw     r10,20(r1)
    28c8:	48 00 00 01 	bl      28c8 <ApcInitNode+0x2184>
    28cc:	2c 03 00 00 	cmpwi   r3,0
    28d0:	40 82 62 4c 	bne-    8b1c <ApcInitNode+0x83d8>
    28d4:	38 80 00 8d 	li      r4,141
    28d8:	3b e0 00 00 	li      r31,0
    28dc:	38 61 10 60 	addi    r3,r1,4192
    28e0:	90 81 10 60 	stw     r4,4192(r1)
    28e4:	90 81 00 10 	stw     r4,16(r1)
    28e8:	93 e1 00 14 	stw     r31,20(r1)
    28ec:	93 e1 10 64 	stw     r31,4196(r1)
    28f0:	48 00 00 01 	bl      28f0 <ApcInitNode+0x21ac>
    28f4:	2c 83 00 00 	cmpwi   cr1,r3,0
    28f8:	40 86 61 f8 	bne-    cr1,8af0 <ApcInitNode+0x83ac>
    28fc:	38 00 00 8e 	li      r0,142
    2900:	38 61 10 70 	addi    r3,r1,4208
    2904:	90 01 10 70 	stw     r0,4208(r1)
    2908:	90 01 00 10 	stw     r0,16(r1)
    290c:	93 e1 00 14 	stw     r31,20(r1)
    2910:	93 e1 10 74 	stw     r31,4212(r1)
    2914:	48 00 00 01 	bl      2914 <ApcInitNode+0x21d0>
    2918:	2f 03 00 00 	cmpwi   cr6,r3,0
    291c:	40 9a 61 a8 	bne-    cr6,8ac4 <ApcInitNode+0x8380>
    2920:	38 80 00 8f 	li      r4,143
    2924:	38 61 10 80 	addi    r3,r1,4224
    2928:	90 81 10 80 	stw     r4,4224(r1)
    292c:	90 81 00 10 	stw     r4,16(r1)
    2930:	93 e1 00 14 	stw     r31,20(r1)
    2934:	93 e1 10 84 	stw     r31,4228(r1)
    2938:	48 00 00 01 	bl      2938 <ApcInitNode+0x21f4>
    293c:	2f 83 00 00 	cmpwi   cr7,r3,0
    2940:	40 9e 61 58 	bne-    cr7,8a98 <ApcInitNode+0x8354>
    2944:	38 00 00 81 	li      r0,129
    2948:	38 61 10 90 	addi    r3,r1,4240
    294c:	90 01 10 90 	stw     r0,4240(r1)
    2950:	90 01 00 10 	stw     r0,16(r1)
    2954:	93 e1 00 14 	stw     r31,20(r1)
    2958:	93 e1 10 94 	stw     r31,4244(r1)
    295c:	48 00 00 01 	bl      295c <ApcInitNode+0x2218>
    2960:	2c 03 00 00 	cmpwi   r3,0
    2964:	40 82 61 08 	bne-    8a6c <ApcInitNode+0x8328>
    2968:	38 80 00 83 	li      r4,131
    296c:	38 61 10 a0 	addi    r3,r1,4256
    2970:	90 81 10 a0 	stw     r4,4256(r1)
    2974:	90 81 00 10 	stw     r4,16(r1)
    2978:	93 e1 00 14 	stw     r31,20(r1)
    297c:	93 e1 10 a4 	stw     r31,4260(r1)
    2980:	48 00 00 01 	bl      2980 <ApcInitNode+0x223c>
    2984:	2c 83 00 00 	cmpwi   cr1,r3,0
    2988:	40 86 60 b8 	bne-    cr1,8a40 <ApcInitNode+0x82fc>
    298c:	38 00 00 84 	li      r0,132
    2990:	38 61 10 b0 	addi    r3,r1,4272
    2994:	90 01 10 b0 	stw     r0,4272(r1)
    2998:	90 01 00 10 	stw     r0,16(r1)
    299c:	93 e1 00 14 	stw     r31,20(r1)
    29a0:	93 e1 10 b4 	stw     r31,4276(r1)
    29a4:	48 00 00 01 	bl      29a4 <ApcInitNode+0x2260>
    29a8:	2f 03 00 00 	cmpwi   cr6,r3,0
    29ac:	40 9a 60 68 	bne-    cr6,8a14 <ApcInitNode+0x82d0>
    29b0:	38 80 00 87 	li      r4,135
    29b4:	38 61 10 c0 	addi    r3,r1,4288
    29b8:	90 81 10 c0 	stw     r4,4288(r1)
    29bc:	90 81 00 10 	stw     r4,16(r1)
    29c0:	93 e1 00 14 	stw     r31,20(r1)
    29c4:	93 e1 10 c4 	stw     r31,4292(r1)
    29c8:	48 00 00 01 	bl      29c8 <ApcInitNode+0x2284>
    29cc:	2f 83 00 00 	cmpwi   cr7,r3,0
    29d0:	40 9e 60 18 	bne-    cr7,89e8 <ApcInitNode+0x82a4>
    29d4:	38 00 00 88 	li      r0,136
    29d8:	38 61 10 d0 	addi    r3,r1,4304
    29dc:	90 01 10 d0 	stw     r0,4304(r1)
    29e0:	90 01 00 10 	stw     r0,16(r1)
    29e4:	93 e1 00 14 	stw     r31,20(r1)
    29e8:	93 e1 10 d4 	stw     r31,4308(r1)
    29ec:	48 00 00 01 	bl      29ec <ApcInitNode+0x22a8>
    29f0:	2c 03 00 00 	cmpwi   r3,0
    29f4:	40 82 5f c8 	bne-    89bc <ApcInitNode+0x8278>
    29f8:	38 80 00 96 	li      r4,150
    29fc:	38 61 10 e0 	addi    r3,r1,4320
    2a00:	90 81 10 e0 	stw     r4,4320(r1)
    2a04:	90 81 00 10 	stw     r4,16(r1)
    2a08:	93 e1 00 14 	stw     r31,20(r1)
    2a0c:	93 e1 10 e4 	stw     r31,4324(r1)
    2a10:	48 00 00 01 	bl      2a10 <ApcInitNode+0x22cc>
    2a14:	2c 83 00 00 	cmpwi   cr1,r3,0
    2a18:	40 86 5f 78 	bne-    cr1,8990 <ApcInitNode+0x824c>
    2a1c:	38 00 00 90 	li      r0,144
    2a20:	38 61 10 f0 	addi    r3,r1,4336
    2a24:	90 01 10 f0 	stw     r0,4336(r1)
    2a28:	93 e1 10 f4 	stw     r31,4340(r1)
    2a2c:	90 01 00 10 	stw     r0,16(r1)
    2a30:	93 e1 00 14 	stw     r31,20(r1)
    2a34:	48 00 00 01 	bl      2a34 <ApcInitNode+0x22f0>
    2a38:	2f 03 00 00 	cmpwi   cr6,r3,0
    2a3c:	40 9a 5f 28 	bne-    cr6,8964 <ApcInitNode+0x8220>
    2a40:	38 00 01 47 	li      r0,327
    2a44:	39 20 00 03 	li      r9,3
    2a48:	38 61 11 00 	addi    r3,r1,4352
    2a4c:	90 01 11 00 	stw     r0,4352(r1)
    2a50:	91 21 11 04 	stw     r9,4356(r1)
    2a54:	4b ff e3 d0 	b       e24 <ApcInitNode+0x6e0>
    2a58:	38 80 00 00 	li      r4,0
    2a5c:	38 61 11 10 	addi    r3,r1,4368
    2a60:	90 81 11 14 	stw     r4,4372(r1)
    2a64:	90 81 00 10 	stw     r4,16(r1)
    2a68:	90 81 00 14 	stw     r4,20(r1)
    2a6c:	90 81 11 10 	stw     r4,4368(r1)
    2a70:	48 00 00 01 	bl      2a70 <ApcInitNode+0x232c>
    2a74:	2f 83 00 00 	cmpwi   cr7,r3,0
    2a78:	40 9e 53 c0 	bne-    cr7,7e38 <ApcInitNode+0x76f4>
    2a7c:	38 00 00 04 	li      r0,4
    2a80:	3b e0 00 00 	li      r31,0
    2a84:	38 61 11 20 	addi    r3,r1,4384
    2a88:	90 01 11 20 	stw     r0,4384(r1)
    2a8c:	93 e1 11 24 	stw     r31,4388(r1)
    2a90:	90 01 00 10 	stw     r0,16(r1)
    2a94:	93 e1 00 14 	stw     r31,20(r1)
    2a98:	48 00 00 01 	bl      2a98 <ApcInitNode+0x2354>
    2a9c:	2c 03 00 00 	cmpwi   r3,0
    2aa0:	40 82 53 6c 	bne-    7e0c <ApcInitNode+0x76c8>
    2aa4:	39 80 00 08 	li      r12,8
    2aa8:	38 80 00 00 	li      r4,0
    2aac:	38 61 11 30 	addi    r3,r1,4400
    2ab0:	91 81 11 30 	stw     r12,4400(r1)
    2ab4:	90 81 11 34 	stw     r4,4404(r1)
    2ab8:	91 81 00 10 	stw     r12,16(r1)
    2abc:	90 81 00 14 	stw     r4,20(r1)
    2ac0:	48 00 00 01 	bl      2ac0 <ApcInitNode+0x237c>
    2ac4:	2c 83 00 00 	cmpwi   cr1,r3,0
    2ac8:	40 86 53 18 	bne-    cr1,7de0 <ApcInitNode+0x769c>
    2acc:	38 00 00 0c 	li      r0,12
    2ad0:	39 60 00 00 	li      r11,0
    2ad4:	38 61 11 40 	addi    r3,r1,4416
    2ad8:	90 01 11 40 	stw     r0,4416(r1)
    2adc:	91 61 11 44 	stw     r11,4420(r1)
    2ae0:	90 01 00 10 	stw     r0,16(r1)
    2ae4:	91 61 00 14 	stw     r11,20(r1)
    2ae8:	48 00 00 01 	bl      2ae8 <ApcInitNode+0x23a4>
    2aec:	2f 03 00 00 	cmpwi   cr6,r3,0
    2af0:	40 9a 52 c4 	bne-    cr6,7db4 <ApcInitNode+0x7670>
    2af4:	38 e0 00 f6 	li      r7,246
    2af8:	38 80 00 00 	li      r4,0
    2afc:	38 61 11 50 	addi    r3,r1,4432
    2b00:	90 e1 11 50 	stw     r7,4432(r1)
    2b04:	90 81 11 54 	stw     r4,4436(r1)
    2b08:	90 e1 00 10 	stw     r7,16(r1)
    2b0c:	90 81 00 14 	stw     r4,20(r1)
    2b10:	48 00 00 01 	bl      2b10 <ApcInitNode+0x23cc>
    2b14:	2f 83 00 00 	cmpwi   cr7,r3,0
    2b18:	40 9e 52 70 	bne-    cr7,7d88 <ApcInitNode+0x7644>
    2b1c:	38 00 00 f9 	li      r0,249
    2b20:	38 a0 00 00 	li      r5,0
    2b24:	38 61 11 60 	addi    r3,r1,4448
    2b28:	90 01 11 60 	stw     r0,4448(r1)
    2b2c:	90 a1 11 64 	stw     r5,4452(r1)
    2b30:	90 01 00 10 	stw     r0,16(r1)
    2b34:	90 a1 00 14 	stw     r5,20(r1)
    2b38:	48 00 00 01 	bl      2b38 <ApcInitNode+0x23f4>
    2b3c:	2c 03 00 00 	cmpwi   r3,0
    2b40:	40 82 52 1c 	bne-    7d5c <ApcInitNode+0x7618>
    2b44:	39 00 00 fb 	li      r8,251
    2b48:	38 80 00 00 	li      r4,0
    2b4c:	38 61 11 70 	addi    r3,r1,4464
    2b50:	91 01 11 70 	stw     r8,4464(r1)
    2b54:	90 81 11 74 	stw     r4,4468(r1)
    2b58:	91 01 00 10 	stw     r8,16(r1)
    2b5c:	90 81 00 14 	stw     r4,20(r1)
    2b60:	48 00 00 01 	bl      2b60 <ApcInitNode+0x241c>
    2b64:	2c 83 00 00 	cmpwi   cr1,r3,0
    2b68:	40 86 51 c8 	bne-    cr1,7d30 <ApcInitNode+0x75ec>
    2b6c:	38 00 01 05 	li      r0,261
    2b70:	39 80 00 00 	li      r12,0
    2b74:	38 61 11 80 	addi    r3,r1,4480
    2b78:	90 01 11 80 	stw     r0,4480(r1)
    2b7c:	91 81 11 84 	stw     r12,4484(r1)
    2b80:	90 01 00 10 	stw     r0,16(r1)
    2b84:	91 81 00 14 	stw     r12,20(r1)
    2b88:	48 00 00 01 	bl      2b88 <ApcInitNode+0x2444>
    2b8c:	2f 03 00 00 	cmpwi   cr6,r3,0
    2b90:	40 9a 51 74 	bne-    cr6,7d04 <ApcInitNode+0x75c0>
    2b94:	39 40 01 11 	li      r10,273
    2b98:	38 80 00 00 	li      r4,0
    2b9c:	38 61 11 90 	addi    r3,r1,4496
    2ba0:	91 41 11 90 	stw     r10,4496(r1)
    2ba4:	90 81 11 94 	stw     r4,4500(r1)
    2ba8:	91 41 00 10 	stw     r10,16(r1)
    2bac:	90 81 00 14 	stw     r4,20(r1)
    2bb0:	48 00 00 01 	bl      2bb0 <ApcInitNode+0x246c>
    2bb4:	2f 83 00 00 	cmpwi   cr7,r3,0
    2bb8:	40 9e 51 20 	bne-    cr7,7cd8 <ApcInitNode+0x7594>
    2bbc:	38 00 01 1d 	li      r0,285
    2bc0:	38 e0 00 00 	li      r7,0
    2bc4:	38 61 11 a0 	addi    r3,r1,4512
    2bc8:	90 01 11 a0 	stw     r0,4512(r1)
    2bcc:	90 e1 11 a4 	stw     r7,4516(r1)
    2bd0:	90 01 00 10 	stw     r0,16(r1)
    2bd4:	90 e1 00 14 	stw     r7,20(r1)
    2bd8:	48 00 00 01 	bl      2bd8 <ApcInitNode+0x2494>
    2bdc:	2c 03 00 00 	cmpwi   r3,0
    2be0:	40 82 50 cc 	bne-    7cac <ApcInitNode+0x7568>
    2be4:	38 a0 01 29 	li      r5,297
    2be8:	38 80 00 00 	li      r4,0
    2bec:	38 61 11 b0 	addi    r3,r1,4528
    2bf0:	90 a1 11 b0 	stw     r5,4528(r1)
    2bf4:	90 81 11 b4 	stw     r4,4532(r1)
    2bf8:	90 a1 00 10 	stw     r5,16(r1)
    2bfc:	90 81 00 14 	stw     r4,20(r1)
    2c00:	48 00 00 01 	bl      2c00 <ApcInitNode+0x24bc>
    2c04:	2c 83 00 00 	cmpwi   cr1,r3,0
    2c08:	40 86 50 78 	bne-    cr1,7c80 <ApcInitNode+0x753c>
    2c0c:	38 00 01 35 	li      r0,309
    2c10:	39 00 00 00 	li      r8,0
    2c14:	38 61 11 c0 	addi    r3,r1,4544
    2c18:	90 01 11 c0 	stw     r0,4544(r1)
    2c1c:	91 01 11 c4 	stw     r8,4548(r1)
    2c20:	90 01 00 10 	stw     r0,16(r1)
    2c24:	91 01 00 14 	stw     r8,20(r1)
    2c28:	48 00 00 01 	bl      2c28 <ApcInitNode+0x24e4>
    2c2c:	2f 03 00 00 	cmpwi   cr6,r3,0
    2c30:	40 9a 50 24 	bne-    cr6,7c54 <ApcInitNode+0x7510>
    2c34:	39 80 01 41 	li      r12,321
    2c38:	38 80 00 00 	li      r4,0
    2c3c:	38 61 11 d0 	addi    r3,r1,4560
    2c40:	91 81 11 d0 	stw     r12,4560(r1)
    2c44:	90 81 11 d4 	stw     r4,4564(r1)
    2c48:	91 81 00 10 	stw     r12,16(r1)
    2c4c:	90 81 00 14 	stw     r4,20(r1)
    2c50:	48 00 00 01 	bl      2c50 <ApcInitNode+0x250c>
    2c54:	2f 83 00 00 	cmpwi   cr7,r3,0
    2c58:	40 9e 4f d0 	bne-    cr7,7c28 <ApcInitNode+0x74e4>
    2c5c:	38 00 00 f5 	li      r0,245
    2c60:	39 40 00 00 	li      r10,0
    2c64:	38 61 11 e0 	addi    r3,r1,4576
    2c68:	90 01 11 e0 	stw     r0,4576(r1)
    2c6c:	91 41 11 e4 	stw     r10,4580(r1)
    2c70:	90 01 00 10 	stw     r0,16(r1)
    2c74:	91 41 00 14 	stw     r10,20(r1)
    2c78:	48 00 00 01 	bl      2c78 <ApcInitNode+0x2534>
    2c7c:	2c 03 00 00 	cmpwi   r3,0
    2c80:	40 82 4f 7c 	bne-    7bfc <ApcInitNode+0x74b8>
    2c84:	38 e0 00 ef 	li      r7,239
    2c88:	38 80 00 00 	li      r4,0
    2c8c:	38 61 11 f0 	addi    r3,r1,4592
    2c90:	90 e1 11 f0 	stw     r7,4592(r1)
    2c94:	90 81 11 f4 	stw     r4,4596(r1)
    2c98:	90 e1 00 10 	stw     r7,16(r1)
    2c9c:	90 81 00 14 	stw     r4,20(r1)
    2ca0:	48 00 00 01 	bl      2ca0 <ApcInitNode+0x255c>
    2ca4:	2c 83 00 00 	cmpwi   cr1,r3,0
    2ca8:	40 86 4f 28 	bne-    cr1,7bd0 <ApcInitNode+0x748c>
    2cac:	38 00 00 f3 	li      r0,243
    2cb0:	38 a0 00 00 	li      r5,0
    2cb4:	38 61 12 00 	addi    r3,r1,4608
    2cb8:	90 01 12 00 	stw     r0,4608(r1)
    2cbc:	90 a1 12 04 	stw     r5,4612(r1)
    2cc0:	90 01 00 10 	stw     r0,16(r1)
    2cc4:	90 a1 00 14 	stw     r5,20(r1)
    2cc8:	48 00 00 01 	bl      2cc8 <ApcInitNode+0x2584>
    2ccc:	2f 03 00 00 	cmpwi   cr6,r3,0
    2cd0:	40 9a 4e d4 	bne-    cr6,7ba4 <ApcInitNode+0x7460>
    2cd4:	38 80 00 f1 	li      r4,241
    2cd8:	3b e0 00 00 	li      r31,0
    2cdc:	38 61 12 10 	addi    r3,r1,4624
    2ce0:	90 81 12 10 	stw     r4,4624(r1)
    2ce4:	90 81 00 10 	stw     r4,16(r1)
    2ce8:	93 e1 00 14 	stw     r31,20(r1)
    2cec:	93 e1 12 14 	stw     r31,4628(r1)
    2cf0:	48 00 00 01 	bl      2cf0 <ApcInitNode+0x25ac>
    2cf4:	2f 83 00 00 	cmpwi   cr7,r3,0
    2cf8:	40 9e 4e 80 	bne-    cr7,7b78 <ApcInitNode+0x7434>
    2cfc:	38 00 00 f0 	li      r0,240
    2d00:	38 61 12 20 	addi    r3,r1,4640
    2d04:	90 01 12 20 	stw     r0,4640(r1)
    2d08:	90 01 00 10 	stw     r0,16(r1)
    2d0c:	93 e1 00 14 	stw     r31,20(r1)
    2d10:	93 e1 12 24 	stw     r31,4644(r1)
    2d14:	48 00 00 01 	bl      2d14 <ApcInitNode+0x25d0>
    2d18:	2c 03 00 00 	cmpwi   r3,0
    2d1c:	40 82 4e 30 	bne-    7b4c <ApcInitNode+0x7408>
    2d20:	38 80 00 f4 	li      r4,244
    2d24:	38 61 12 30 	addi    r3,r1,4656
    2d28:	90 81 12 30 	stw     r4,4656(r1)
    2d2c:	90 81 00 10 	stw     r4,16(r1)
    2d30:	93 e1 00 14 	stw     r31,20(r1)
    2d34:	93 e1 12 34 	stw     r31,4660(r1)
    2d38:	48 00 00 01 	bl      2d38 <ApcInitNode+0x25f4>
    2d3c:	2c 83 00 00 	cmpwi   cr1,r3,0
    2d40:	40 86 4d e0 	bne-    cr1,7b20 <ApcInitNode+0x73dc>
    2d44:	38 00 00 f2 	li      r0,242
    2d48:	38 61 12 40 	addi    r3,r1,4672
    2d4c:	90 01 12 40 	stw     r0,4672(r1)
    2d50:	90 01 00 10 	stw     r0,16(r1)
    2d54:	93 e1 00 14 	stw     r31,20(r1)
    2d58:	93 e1 12 44 	stw     r31,4676(r1)
    2d5c:	48 00 00 01 	bl      2d5c <ApcInitNode+0x2618>
    2d60:	2f 03 00 00 	cmpwi   cr6,r3,0
    2d64:	40 9a 4d 90 	bne-    cr6,7af4 <ApcInitNode+0x73b0>
    2d68:	38 80 00 fe 	li      r4,254
    2d6c:	38 61 12 50 	addi    r3,r1,4688
    2d70:	90 81 12 50 	stw     r4,4688(r1)
    2d74:	90 81 00 10 	stw     r4,16(r1)
    2d78:	93 e1 00 14 	stw     r31,20(r1)
    2d7c:	93 e1 12 54 	stw     r31,4692(r1)
    2d80:	48 00 00 01 	bl      2d80 <ApcInitNode+0x263c>
    2d84:	2f 83 00 00 	cmpwi   cr7,r3,0
    2d88:	40 9e 4d 40 	bne-    cr7,7ac8 <ApcInitNode+0x7384>
    2d8c:	38 00 00 f8 	li      r0,248
    2d90:	38 61 12 60 	addi    r3,r1,4704
    2d94:	90 01 12 60 	stw     r0,4704(r1)
    2d98:	90 01 00 10 	stw     r0,16(r1)
    2d9c:	93 e1 00 14 	stw     r31,20(r1)
    2da0:	93 e1 12 64 	stw     r31,4708(r1)
    2da4:	48 00 00 01 	bl      2da4 <ApcInitNode+0x2660>
    2da8:	2c 03 00 00 	cmpwi   r3,0
    2dac:	40 82 4c f0 	bne-    7a9c <ApcInitNode+0x7358>
    2db0:	38 80 00 fc 	li      r4,252
    2db4:	38 61 12 70 	addi    r3,r1,4720
    2db8:	90 81 12 70 	stw     r4,4720(r1)
    2dbc:	90 81 00 10 	stw     r4,16(r1)
    2dc0:	93 e1 00 14 	stw     r31,20(r1)
    2dc4:	93 e1 12 74 	stw     r31,4724(r1)
    2dc8:	48 00 00 01 	bl      2dc8 <ApcInitNode+0x2684>
    2dcc:	2c 83 00 00 	cmpwi   cr1,r3,0
    2dd0:	40 86 4c a0 	bne-    cr1,7a70 <ApcInitNode+0x732c>
    2dd4:	38 00 00 fa 	li      r0,250
    2dd8:	38 61 12 80 	addi    r3,r1,4736
    2ddc:	90 01 12 80 	stw     r0,4736(r1)
    2de0:	90 01 00 10 	stw     r0,16(r1)
    2de4:	93 e1 00 14 	stw     r31,20(r1)
    2de8:	93 e1 12 84 	stw     r31,4740(r1)
    2dec:	48 00 00 01 	bl      2dec <ApcInitNode+0x26a8>
    2df0:	2f 03 00 00 	cmpwi   cr6,r3,0
    2df4:	40 9a 4c 50 	bne-    cr6,7a44 <ApcInitNode+0x7300>
    2df8:	38 80 00 f7 	li      r4,247
    2dfc:	38 61 12 90 	addi    r3,r1,4752
    2e00:	90 81 12 90 	stw     r4,4752(r1)
    2e04:	90 81 00 10 	stw     r4,16(r1)
    2e08:	93 e1 00 14 	stw     r31,20(r1)
    2e0c:	93 e1 12 94 	stw     r31,4756(r1)
    2e10:	48 00 00 01 	bl      2e10 <ApcInitNode+0x26cc>
    2e14:	2f 83 00 00 	cmpwi   cr7,r3,0
    2e18:	40 9e 4c 00 	bne-    cr7,7a18 <ApcInitNode+0x72d4>
    2e1c:	38 00 00 fd 	li      r0,253
    2e20:	38 61 12 a0 	addi    r3,r1,4768
    2e24:	90 01 12 a0 	stw     r0,4768(r1)
    2e28:	93 e1 12 a4 	stw     r31,4772(r1)
    2e2c:	90 01 00 10 	stw     r0,16(r1)
    2e30:	93 e1 00 14 	stw     r31,20(r1)
    2e34:	48 00 00 01 	bl      2e34 <ApcInitNode+0x26f0>
    2e38:	2c 03 00 00 	cmpwi   r3,0
    2e3c:	40 82 4b b0 	bne-    79ec <ApcInitNode+0x72a8>
    2e40:	38 00 01 47 	li      r0,327
    2e44:	39 20 00 03 	li      r9,3
    2e48:	38 61 12 b0 	addi    r3,r1,4784
    2e4c:	90 01 12 b0 	stw     r0,4784(r1)
    2e50:	91 21 12 b4 	stw     r9,4788(r1)
    2e54:	4b ff df d0 	b       e24 <ApcInitNode+0x6e0>
    2e58:	38 c0 00 02 	li      r6,2
    2e5c:	38 80 00 00 	li      r4,0
    2e60:	38 61 0c f0 	addi    r3,r1,3312
    2e64:	90 c1 0c f0 	stw     r6,3312(r1)
    2e68:	90 81 0c f4 	stw     r4,3316(r1)
    2e6c:	90 c1 00 10 	stw     r6,16(r1)
    2e70:	90 81 00 14 	stw     r4,20(r1)
    2e74:	48 00 00 01 	bl      2e74 <ApcInitNode+0x2730>
    2e78:	2f 83 00 00 	cmpwi   cr7,r3,0
    2e7c:	40 9e 5a bc 	bne-    cr7,8938 <ApcInitNode+0x81f4>
    2e80:	38 00 00 06 	li      r0,6
    2e84:	39 60 00 00 	li      r11,0
    2e88:	38 61 0d 00 	addi    r3,r1,3328
    2e8c:	90 01 0d 00 	stw     r0,3328(r1)
    2e90:	91 61 0d 04 	stw     r11,3332(r1)
    2e94:	90 01 00 10 	stw     r0,16(r1)
    2e98:	91 61 00 14 	stw     r11,20(r1)
    2e9c:	48 00 00 01 	bl      2e9c <ApcInitNode+0x2758>
    2ea0:	2c 03 00 00 	cmpwi   r3,0
    2ea4:	40 82 5a 68 	bne-    890c <ApcInitNode+0x81c8>
    2ea8:	39 00 00 0a 	li      r8,10
    2eac:	38 80 00 00 	li      r4,0
    2eb0:	38 61 0d 10 	addi    r3,r1,3344
    2eb4:	91 01 0d 10 	stw     r8,3344(r1)
    2eb8:	90 81 0d 14 	stw     r4,3348(r1)
    2ebc:	91 01 00 10 	stw     r8,16(r1)
    2ec0:	90 81 00 14 	stw     r4,20(r1)
    2ec4:	48 00 00 01 	bl      2ec4 <ApcInitNode+0x2780>
    2ec8:	2c 83 00 00 	cmpwi   cr1,r3,0
    2ecc:	40 86 5a 14 	bne-    cr1,88e0 <ApcInitNode+0x819c>
    2ed0:	38 00 00 0e 	li      r0,14
    2ed4:	39 40 00 00 	li      r10,0
    2ed8:	38 61 0d 20 	addi    r3,r1,3360
    2edc:	90 01 0d 20 	stw     r0,3360(r1)
    2ee0:	91 41 0d 24 	stw     r10,3364(r1)
    2ee4:	90 01 00 10 	stw     r0,16(r1)
    2ee8:	91 41 00 14 	stw     r10,20(r1)
    2eec:	48 00 00 01 	bl      2eec <ApcInitNode+0x27a8>
    2ef0:	2f 03 00 00 	cmpwi   cr6,r3,0
    2ef4:	40 9a 59 c0 	bne-    cr6,88b4 <ApcInitNode+0x8170>
    2ef8:	3b e0 01 46 	li      r31,326
    2efc:	38 80 00 00 	li      r4,0
    2f00:	38 61 0d 30 	addi    r3,r1,3376
    2f04:	93 e1 0d 30 	stw     r31,3376(r1)
    2f08:	90 81 0d 34 	stw     r4,3380(r1)
    2f0c:	93 e1 00 10 	stw     r31,16(r1)
    2f10:	90 81 00 14 	stw     r4,20(r1)
    2f14:	48 00 00 01 	bl      2f14 <ApcInitNode+0x27d0>
    2f18:	2f 83 00 00 	cmpwi   cr7,r3,0
    2f1c:	40 9e 59 6c 	bne-    cr7,8888 <ApcInitNode+0x8144>
    2f20:	38 00 01 2f 	li      r0,303
    2f24:	38 c0 00 00 	li      r6,0
    2f28:	38 61 0d 40 	addi    r3,r1,3392
    2f2c:	90 01 0d 40 	stw     r0,3392(r1)
    2f30:	90 c1 0d 44 	stw     r6,3396(r1)
    2f34:	90 01 00 10 	stw     r0,16(r1)
    2f38:	90 c1 00 14 	stw     r6,20(r1)
    2f3c:	48 00 00 01 	bl      2f3c <ApcInitNode+0x27f8>
    2f40:	2c 03 00 00 	cmpwi   r3,0
    2f44:	40 82 59 18 	bne-    885c <ApcInitNode+0x8118>
    2f48:	38 a0 01 30 	li      r5,304
    2f4c:	38 80 00 00 	li      r4,0
    2f50:	38 61 0d 50 	addi    r3,r1,3408
    2f54:	90 a1 0d 50 	stw     r5,3408(r1)
    2f58:	90 81 0d 54 	stw     r4,3412(r1)
    2f5c:	90 a1 00 10 	stw     r5,16(r1)
    2f60:	90 81 00 14 	stw     r4,20(r1)
    2f64:	48 00 00 01 	bl      2f64 <ApcInitNode+0x2820>
    2f68:	2c 83 00 00 	cmpwi   cr1,r3,0
    2f6c:	40 86 58 c4 	bne-    cr1,8830 <ApcInitNode+0x80ec>
    2f70:	38 00 01 31 	li      r0,305
    2f74:	39 00 00 00 	li      r8,0
    2f78:	38 61 0d 60 	addi    r3,r1,3424
    2f7c:	90 01 0d 60 	stw     r0,3424(r1)
    2f80:	91 01 0d 64 	stw     r8,3428(r1)
    2f84:	90 01 00 10 	stw     r0,16(r1)
    2f88:	91 01 00 14 	stw     r8,20(r1)
    2f8c:	48 00 00 01 	bl      2f8c <ApcInitNode+0x2848>
    2f90:	2f 03 00 00 	cmpwi   cr6,r3,0
    2f94:	40 9a 58 70 	bne-    cr6,8804 <ApcInitNode+0x80c0>
    2f98:	39 40 01 32 	li      r10,306
    2f9c:	38 80 00 00 	li      r4,0
    2fa0:	38 61 0d 70 	addi    r3,r1,3440
    2fa4:	91 41 0d 70 	stw     r10,3440(r1)
    2fa8:	90 81 0d 74 	stw     r4,3444(r1)
    2fac:	91 41 00 10 	stw     r10,16(r1)
    2fb0:	90 81 00 14 	stw     r4,20(r1)
    2fb4:	48 00 00 01 	bl      2fb4 <ApcInitNode+0x2870>
    2fb8:	2f 83 00 00 	cmpwi   cr7,r3,0
    2fbc:	40 9e 58 1c 	bne-    cr7,87d8 <ApcInitNode+0x8094>
    2fc0:	38 00 01 33 	li      r0,307
    2fc4:	39 60 00 00 	li      r11,0
    2fc8:	38 61 0d 80 	addi    r3,r1,3456
    2fcc:	90 01 0d 80 	stw     r0,3456(r1)
    2fd0:	91 61 0d 84 	stw     r11,3460(r1)
    2fd4:	90 01 00 10 	stw     r0,16(r1)
    2fd8:	91 61 00 14 	stw     r11,20(r1)
    2fdc:	48 00 00 01 	bl      2fdc <ApcInitNode+0x2898>
    2fe0:	2c 03 00 00 	cmpwi   r3,0
    2fe4:	40 82 57 c8 	bne-    87ac <ApcInitNode+0x8068>
    2fe8:	38 c0 01 34 	li      r6,308
    2fec:	38 80 00 00 	li      r4,0
    2ff0:	38 61 0d 90 	addi    r3,r1,3472
    2ff4:	90 c1 0d 90 	stw     r6,3472(r1)
    2ff8:	90 81 0d 94 	stw     r4,3476(r1)
    2ffc:	90 c1 00 10 	stw     r6,16(r1)
    3000:	90 81 00 14 	stw     r4,20(r1)
    3004:	48 00 00 01 	bl      3004 <ApcInitNode+0x28c0>
    3008:	2c 83 00 00 	cmpwi   cr1,r3,0
    300c:	40 86 57 74 	bne-    cr1,8780 <ApcInitNode+0x803c>
    3010:	38 00 01 36 	li      r0,310
    3014:	38 a0 00 00 	li      r5,0
    3018:	38 61 0d a0 	addi    r3,r1,3488
    301c:	90 01 0d a0 	stw     r0,3488(r1)
    3020:	90 a1 0d a4 	stw     r5,3492(r1)
    3024:	90 01 00 10 	stw     r0,16(r1)
    3028:	90 a1 00 14 	stw     r5,20(r1)
    302c:	48 00 00 01 	bl      302c <ApcInitNode+0x28e8>
    3030:	2f 03 00 00 	cmpwi   cr6,r3,0
    3034:	40 9a 57 20 	bne-    cr6,8754 <ApcInitNode+0x8010>
    3038:	39 00 01 37 	li      r8,311
    303c:	38 80 00 00 	li      r4,0
    3040:	38 61 0d b0 	addi    r3,r1,3504
    3044:	91 01 0d b0 	stw     r8,3504(r1)
    3048:	90 81 0d b4 	stw     r4,3508(r1)
    304c:	91 01 00 10 	stw     r8,16(r1)
    3050:	90 81 00 14 	stw     r4,20(r1)
    3054:	48 00 00 01 	bl      3054 <ApcInitNode+0x2910>
    3058:	2f 83 00 00 	cmpwi   cr7,r3,0
    305c:	40 9e 56 cc 	bne-    cr7,8728 <ApcInitNode+0x7fe4>
    3060:	38 00 01 38 	li      r0,312
    3064:	39 40 00 00 	li      r10,0
    3068:	38 61 0d c0 	addi    r3,r1,3520
    306c:	90 01 0d c0 	stw     r0,3520(r1)
    3070:	91 41 0d c4 	stw     r10,3524(r1)
    3074:	90 01 00 10 	stw     r0,16(r1)
    3078:	91 41 00 14 	stw     r10,20(r1)
    307c:	48 00 00 01 	bl      307c <ApcInitNode+0x2938>
    3080:	2c 03 00 00 	cmpwi   r3,0
    3084:	40 82 56 78 	bne-    86fc <ApcInitNode+0x7fb8>
    3088:	39 60 01 39 	li      r11,313
    308c:	38 80 00 00 	li      r4,0
    3090:	38 61 0d d0 	addi    r3,r1,3536
    3094:	91 61 0d d0 	stw     r11,3536(r1)
    3098:	90 81 0d d4 	stw     r4,3540(r1)
    309c:	91 61 00 10 	stw     r11,16(r1)
    30a0:	90 81 00 14 	stw     r4,20(r1)
    30a4:	48 00 00 01 	bl      30a4 <ApcInitNode+0x2960>
    30a8:	2c 83 00 00 	cmpwi   cr1,r3,0
    30ac:	40 86 56 24 	bne-    cr1,86d0 <ApcInitNode+0x7f8c>
    30b0:	38 00 01 3a 	li      r0,314
    30b4:	38 c0 00 00 	li      r6,0
    30b8:	38 61 0d e0 	addi    r3,r1,3552
    30bc:	90 01 0d e0 	stw     r0,3552(r1)
    30c0:	90 c1 0d e4 	stw     r6,3556(r1)
    30c4:	90 01 00 10 	stw     r0,16(r1)
    30c8:	90 c1 00 14 	stw     r6,20(r1)
    30cc:	48 00 00 01 	bl      30cc <ApcInitNode+0x2988>
    30d0:	2f 03 00 00 	cmpwi   cr6,r3,0
    30d4:	40 9a 55 d0 	bne-    cr6,86a4 <ApcInitNode+0x7f60>
    30d8:	38 a0 01 3b 	li      r5,315
    30dc:	38 80 00 00 	li      r4,0
    30e0:	38 61 0d f0 	addi    r3,r1,3568
    30e4:	90 a1 0d f0 	stw     r5,3568(r1)
    30e8:	90 81 0d f4 	stw     r4,3572(r1)
    30ec:	90 a1 00 10 	stw     r5,16(r1)
    30f0:	90 81 00 14 	stw     r4,20(r1)
    30f4:	48 00 00 01 	bl      30f4 <ApcInitNode+0x29b0>
    30f8:	2f 83 00 00 	cmpwi   cr7,r3,0
    30fc:	40 9e 55 7c 	bne-    cr7,8678 <ApcInitNode+0x7f34>
    3100:	38 00 01 3c 	li      r0,316
    3104:	39 00 00 00 	li      r8,0
    3108:	38 61 0e 00 	addi    r3,r1,3584
    310c:	90 01 0e 00 	stw     r0,3584(r1)
    3110:	91 01 0e 04 	stw     r8,3588(r1)
    3114:	90 01 00 10 	stw     r0,16(r1)
    3118:	91 01 00 14 	stw     r8,20(r1)
    311c:	48 00 00 01 	bl      311c <ApcInitNode+0x29d8>
    3120:	2c 03 00 00 	cmpwi   r3,0
    3124:	40 82 55 28 	bne-    864c <ApcInitNode+0x7f08>
    3128:	39 40 01 3d 	li      r10,317
    312c:	38 80 00 00 	li      r4,0
    3130:	38 61 0e 10 	addi    r3,r1,3600
    3134:	91 41 0e 10 	stw     r10,3600(r1)
    3138:	90 81 0e 14 	stw     r4,3604(r1)
    313c:	91 41 00 10 	stw     r10,16(r1)
    3140:	90 81 00 14 	stw     r4,20(r1)
    3144:	48 00 00 01 	bl      3144 <ApcInitNode+0x2a00>
    3148:	2c 83 00 00 	cmpwi   cr1,r3,0
    314c:	40 86 54 d4 	bne-    cr1,8620 <ApcInitNode+0x7edc>
    3150:	38 00 01 3e 	li      r0,318
    3154:	39 60 00 00 	li      r11,0
    3158:	38 61 0e 20 	addi    r3,r1,3616
    315c:	90 01 0e 20 	stw     r0,3616(r1)
    3160:	91 61 0e 24 	stw     r11,3620(r1)
    3164:	90 01 00 10 	stw     r0,16(r1)
    3168:	91 61 00 14 	stw     r11,20(r1)
    316c:	48 00 00 01 	bl      316c <ApcInitNode+0x2a28>
    3170:	2f 03 00 00 	cmpwi   cr6,r3,0
    3174:	40 9a 54 80 	bne-    cr6,85f4 <ApcInitNode+0x7eb0>
    3178:	38 c0 01 3f 	li      r6,319
    317c:	38 80 00 00 	li      r4,0
    3180:	38 61 0e 30 	addi    r3,r1,3632
    3184:	90 c1 0e 30 	stw     r6,3632(r1)
    3188:	90 81 0e 34 	stw     r4,3636(r1)
    318c:	90 c1 00 10 	stw     r6,16(r1)
    3190:	90 81 00 14 	stw     r4,20(r1)
    3194:	48 00 00 01 	bl      3194 <ApcInitNode+0x2a50>
    3198:	2f 83 00 00 	cmpwi   cr7,r3,0
    319c:	40 9e 54 2c 	bne-    cr7,85c8 <ApcInitNode+0x7e84>
    31a0:	38 00 01 40 	li      r0,320
    31a4:	38 a0 00 00 	li      r5,0
    31a8:	38 61 0e 40 	addi    r3,r1,3648
    31ac:	90 01 0e 40 	stw     r0,3648(r1)
    31b0:	90 a1 0e 44 	stw     r5,3652(r1)
    31b4:	90 01 00 10 	stw     r0,16(r1)
    31b8:	90 a1 00 14 	stw     r5,20(r1)
    31bc:	48 00 00 01 	bl      31bc <ApcInitNode+0x2a78>
    31c0:	2c 03 00 00 	cmpwi   r3,0
    31c4:	40 82 53 d8 	bne-    859c <ApcInitNode+0x7e58>
    31c8:	38 80 01 42 	li      r4,322
    31cc:	3b e0 00 00 	li      r31,0
    31d0:	38 61 0e 50 	addi    r3,r1,3664
    31d4:	90 81 0e 50 	stw     r4,3664(r1)
    31d8:	90 81 00 10 	stw     r4,16(r1)
    31dc:	93 e1 00 14 	stw     r31,20(r1)
    31e0:	93 e1 0e 54 	stw     r31,3668(r1)
    31e4:	48 00 00 01 	bl      31e4 <ApcInitNode+0x2aa0>
    31e8:	2c 83 00 00 	cmpwi   cr1,r3,0
    31ec:	40 86 53 84 	bne-    cr1,8570 <ApcInitNode+0x7e2c>
    31f0:	38 00 01 43 	li      r0,323
    31f4:	38 61 0e 60 	addi    r3,r1,3680
    31f8:	90 01 0e 60 	stw     r0,3680(r1)
    31fc:	90 01 00 10 	stw     r0,16(r1)
    3200:	93 e1 00 14 	stw     r31,20(r1)
    3204:	93 e1 0e 64 	stw     r31,3684(r1)
    3208:	48 00 00 01 	bl      3208 <ApcInitNode+0x2ac4>
    320c:	2f 03 00 00 	cmpwi   cr6,r3,0
    3210:	40 9a 53 34 	bne-    cr6,8544 <ApcInitNode+0x7e00>
    3214:	38 80 01 44 	li      r4,324
    3218:	38 61 0e 70 	addi    r3,r1,3696
    321c:	90 81 0e 70 	stw     r4,3696(r1)
    3220:	90 81 00 10 	stw     r4,16(r1)
    3224:	93 e1 00 14 	stw     r31,20(r1)
    3228:	93 e1 0e 74 	stw     r31,3700(r1)
    322c:	48 00 00 01 	bl      322c <ApcInitNode+0x2ae8>
    3230:	2f 83 00 00 	cmpwi   cr7,r3,0
    3234:	40 9e 52 e4 	bne-    cr7,8518 <ApcInitNode+0x7dd4>
    3238:	38 00 01 45 	li      r0,325
    323c:	38 61 0e 80 	addi    r3,r1,3712
    3240:	90 01 0e 80 	stw     r0,3712(r1)
    3244:	90 01 00 10 	stw     r0,16(r1)
    3248:	93 e1 00 14 	stw     r31,20(r1)
    324c:	93 e1 0e 84 	stw     r31,3716(r1)
    3250:	48 00 00 01 	bl      3250 <ApcInitNode+0x2b0c>
    3254:	2c 03 00 00 	cmpwi   r3,0
    3258:	40 82 52 94 	bne-    84ec <ApcInitNode+0x7da8>
    325c:	38 80 01 05 	li      r4,261
    3260:	38 61 0e 90 	addi    r3,r1,3728
    3264:	90 81 0e 90 	stw     r4,3728(r1)
    3268:	90 81 00 10 	stw     r4,16(r1)
    326c:	93 e1 00 14 	stw     r31,20(r1)
    3270:	93 e1 0e 94 	stw     r31,3732(r1)
    3274:	48 00 00 01 	bl      3274 <ApcInitNode+0x2b30>
    3278:	2c 83 00 00 	cmpwi   cr1,r3,0
    327c:	40 86 52 44 	bne-    cr1,84c0 <ApcInitNode+0x7d7c>
    3280:	38 00 01 11 	li      r0,273
    3284:	38 61 0e a0 	addi    r3,r1,3744
    3288:	90 01 0e a0 	stw     r0,3744(r1)
    328c:	90 01 00 10 	stw     r0,16(r1)
    3290:	93 e1 00 14 	stw     r31,20(r1)
    3294:	93 e1 0e a4 	stw     r31,3748(r1)
    3298:	48 00 00 01 	bl      3298 <ApcInitNode+0x2b54>
    329c:	2f 03 00 00 	cmpwi   cr6,r3,0
    32a0:	40 9a 51 f4 	bne-    cr6,8494 <ApcInitNode+0x7d50>
    32a4:	38 80 01 1d 	li      r4,285
    32a8:	38 61 0e b0 	addi    r3,r1,3760
    32ac:	90 81 0e b0 	stw     r4,3760(r1)
    32b0:	90 81 00 10 	stw     r4,16(r1)
    32b4:	93 e1 00 14 	stw     r31,20(r1)
    32b8:	93 e1 0e b4 	stw     r31,3764(r1)
    32bc:	48 00 00 01 	bl      32bc <ApcInitNode+0x2b78>
    32c0:	2f 83 00 00 	cmpwi   cr7,r3,0
    32c4:	40 9e 51 a4 	bne-    cr7,8468 <ApcInitNode+0x7d24>
    32c8:	38 00 01 29 	li      r0,297
    32cc:	38 61 0e c0 	addi    r3,r1,3776
    32d0:	90 01 0e c0 	stw     r0,3776(r1)
    32d4:	90 01 00 10 	stw     r0,16(r1)
    32d8:	93 e1 00 14 	stw     r31,20(r1)
    32dc:	93 e1 0e c4 	stw     r31,3780(r1)
    32e0:	48 00 00 01 	bl      32e0 <ApcInitNode+0x2b9c>
    32e4:	2c 03 00 00 	cmpwi   r3,0
    32e8:	40 82 51 54 	bne-    843c <ApcInitNode+0x7cf8>
    32ec:	38 80 01 35 	li      r4,309
    32f0:	38 61 0e d0 	addi    r3,r1,3792
    32f4:	90 81 0e d0 	stw     r4,3792(r1)
    32f8:	90 81 00 10 	stw     r4,16(r1)
    32fc:	93 e1 00 14 	stw     r31,20(r1)
    3300:	93 e1 0e d4 	stw     r31,3796(r1)
    3304:	48 00 00 01 	bl      3304 <ApcInitNode+0x2bc0>
    3308:	2c 83 00 00 	cmpwi   cr1,r3,0
    330c:	40 86 51 04 	bne-    cr1,8410 <ApcInitNode+0x7ccc>
    3310:	38 00 01 41 	li      r0,321
    3314:	38 61 0e e0 	addi    r3,r1,3808
    3318:	90 01 0e e0 	stw     r0,3808(r1)
    331c:	93 e1 0e e4 	stw     r31,3812(r1)
    3320:	90 01 00 10 	stw     r0,16(r1)
    3324:	93 e1 00 14 	stw     r31,20(r1)
    3328:	48 00 00 01 	bl      3328 <ApcInitNode+0x2be4>
    332c:	2f 03 00 00 	cmpwi   cr6,r3,0
    3330:	40 9a 50 b4 	bne-    cr6,83e4 <ApcInitNode+0x7ca0>
    3334:	38 00 01 47 	li      r0,327
    3338:	39 20 00 03 	li      r9,3
    333c:	38 61 0e f0 	addi    r3,r1,3824
    3340:	90 01 0e f0 	stw     r0,3824(r1)
    3344:	91 21 0e f4 	stw     r9,3828(r1)
    3348:	4b ff da dc 	b       e24 <ApcInitNode+0x6e0>
    334c:	38 00 00 01 	li      r0,1
    3350:	39 60 00 00 	li      r11,0
    3354:	38 61 0a d0 	addi    r3,r1,2768
    3358:	90 01 0a d0 	stw     r0,2768(r1)
    335c:	91 61 0a d4 	stw     r11,2772(r1)
    3360:	90 01 00 10 	stw     r0,16(r1)
    3364:	91 61 00 14 	stw     r11,20(r1)
    3368:	48 00 00 01 	bl      3368 <ApcInitNode+0x2c24>
    336c:	2f 03 00 00 	cmpwi   cr6,r3,0
    3370:	40 9a 33 bc 	bne-    cr6,672c <ApcInitNode+0x5fe8>
    3374:	38 c0 00 05 	li      r6,5
    3378:	38 80 00 00 	li      r4,0
    337c:	38 61 0a e0 	addi    r3,r1,2784
    3380:	90 c1 0a e0 	stw     r6,2784(r1)
    3384:	90 81 0a e4 	stw     r4,2788(r1)
    3388:	90 c1 00 10 	stw     r6,16(r1)
    338c:	90 81 00 14 	stw     r4,20(r1)
    3390:	48 00 00 01 	bl      3390 <ApcInitNode+0x2c4c>
    3394:	2f 83 00 00 	cmpwi   cr7,r3,0
    3398:	40 9e 33 68 	bne-    cr7,6700 <ApcInitNode+0x5fbc>
    339c:	38 00 00 09 	li      r0,9
    33a0:	39 40 00 00 	li      r10,0
    33a4:	38 61 0a f0 	addi    r3,r1,2800
    33a8:	90 01 0a f0 	stw     r0,2800(r1)
    33ac:	91 41 0a f4 	stw     r10,2804(r1)
    33b0:	90 01 00 10 	stw     r0,16(r1)
    33b4:	91 41 00 14 	stw     r10,20(r1)
    33b8:	48 00 00 01 	bl      33b8 <ApcInitNode+0x2c74>
    33bc:	2c 03 00 00 	cmpwi   r3,0
    33c0:	40 82 33 14 	bne-    66d4 <ApcInitNode+0x5f90>
    33c4:	39 00 00 0d 	li      r8,13
    33c8:	38 80 00 00 	li      r4,0
    33cc:	38 61 0b 00 	addi    r3,r1,2816
    33d0:	91 01 0b 00 	stw     r8,2816(r1)
    33d4:	90 81 0b 04 	stw     r4,2820(r1)
    33d8:	91 01 00 10 	stw     r8,16(r1)
    33dc:	90 81 00 14 	stw     r4,20(r1)
    33e0:	48 00 00 01 	bl      33e0 <ApcInitNode+0x2c9c>
    33e4:	2c 83 00 00 	cmpwi   cr1,r3,0
    33e8:	40 86 32 c0 	bne-    cr1,66a8 <ApcInitNode+0x5f64>
    33ec:	38 00 00 89 	li      r0,137
    33f0:	3b e0 00 00 	li      r31,0
    33f4:	38 61 0b 10 	addi    r3,r1,2832
    33f8:	90 01 0b 10 	stw     r0,2832(r1)
    33fc:	93 e1 0b 14 	stw     r31,2836(r1)
    3400:	90 01 00 10 	stw     r0,16(r1)
    3404:	93 e1 00 14 	stw     r31,20(r1)
    3408:	48 00 00 01 	bl      3408 <ApcInitNode+0x2cc4>
    340c:	2f 03 00 00 	cmpwi   cr6,r3,0
    3410:	40 9a 32 6c 	bne-    cr6,667c <ApcInitNode+0x5f38>
    3414:	38 a0 01 05 	li      r5,261
    3418:	38 80 00 00 	li      r4,0
    341c:	38 61 0b 20 	addi    r3,r1,2848
    3420:	90 a1 0b 20 	stw     r5,2848(r1)
    3424:	90 81 0b 24 	stw     r4,2852(r1)
    3428:	90 a1 00 10 	stw     r5,16(r1)
    342c:	90 81 00 14 	stw     r4,20(r1)
    3430:	48 00 00 01 	bl      3430 <ApcInitNode+0x2cec>
    3434:	2f 83 00 00 	cmpwi   cr7,r3,0
    3438:	40 9e 32 18 	bne-    cr7,6650 <ApcInitNode+0x5f0c>
    343c:	38 00 01 11 	li      r0,273
    3440:	38 e0 00 00 	li      r7,0
    3444:	38 61 0b 30 	addi    r3,r1,2864
    3448:	90 01 0b 30 	stw     r0,2864(r1)
    344c:	90 e1 0b 34 	stw     r7,2868(r1)
    3450:	90 01 00 10 	stw     r0,16(r1)
    3454:	90 e1 00 14 	stw     r7,20(r1)
    3458:	48 00 00 01 	bl      3458 <ApcInitNode+0x2d14>
    345c:	2c 03 00 00 	cmpwi   r3,0
    3460:	40 82 31 c4 	bne-    6624 <ApcInitNode+0x5ee0>
    3464:	39 40 01 1d 	li      r10,285
    3468:	38 80 00 00 	li      r4,0
    346c:	38 61 0b 40 	addi    r3,r1,2880
    3470:	91 41 0b 40 	stw     r10,2880(r1)
    3474:	90 81 0b 44 	stw     r4,2884(r1)
    3478:	91 41 00 10 	stw     r10,16(r1)
    347c:	90 81 00 14 	stw     r4,20(r1)
    3480:	48 00 00 01 	bl      3480 <ApcInitNode+0x2d3c>
    3484:	2c 83 00 00 	cmpwi   cr1,r3,0
    3488:	40 86 31 70 	bne-    cr1,65f8 <ApcInitNode+0x5eb4>
    348c:	38 00 01 29 	li      r0,297
    3490:	39 60 00 00 	li      r11,0
    3494:	38 61 0b 50 	addi    r3,r1,2896
    3498:	90 01 0b 50 	stw     r0,2896(r1)
    349c:	91 61 0b 54 	stw     r11,2900(r1)
    34a0:	90 01 00 10 	stw     r0,16(r1)
    34a4:	91 61 00 14 	stw     r11,20(r1)
    34a8:	48 00 00 01 	bl      34a8 <ApcInitNode+0x2d64>
    34ac:	2f 03 00 00 	cmpwi   cr6,r3,0
    34b0:	40 9a 31 1c 	bne-    cr6,65cc <ApcInitNode+0x5e88>
    34b4:	3b e0 01 35 	li      r31,309
    34b8:	38 80 00 00 	li      r4,0
    34bc:	38 61 0b 60 	addi    r3,r1,2912
    34c0:	93 e1 0b 60 	stw     r31,2912(r1)
    34c4:	90 81 0b 64 	stw     r4,2916(r1)
    34c8:	93 e1 00 10 	stw     r31,16(r1)
    34cc:	90 81 00 14 	stw     r4,20(r1)
    34d0:	48 00 00 01 	bl      34d0 <ApcInitNode+0x2d8c>
    34d4:	2f 83 00 00 	cmpwi   cr7,r3,0
    34d8:	40 9e 30 c8 	bne-    cr7,65a0 <ApcInitNode+0x5e5c>
    34dc:	38 00 01 41 	li      r0,321
    34e0:	38 a0 00 00 	li      r5,0
    34e4:	38 61 0b 70 	addi    r3,r1,2928
    34e8:	90 01 0b 70 	stw     r0,2928(r1)
    34ec:	90 a1 0b 74 	stw     r5,2932(r1)
    34f0:	90 01 00 10 	stw     r0,16(r1)
    34f4:	90 a1 00 14 	stw     r5,20(r1)
    34f8:	48 00 00 01 	bl      34f8 <ApcInitNode+0x2db4>
    34fc:	2c 03 00 00 	cmpwi   r3,0
    3500:	40 82 30 74 	bne-    6574 <ApcInitNode+0x5e30>
    3504:	38 e0 01 17 	li      r7,279
    3508:	38 80 00 00 	li      r4,0
    350c:	38 61 0b 80 	addi    r3,r1,2944
    3510:	90 e1 0b 80 	stw     r7,2944(r1)
    3514:	90 81 0b 84 	stw     r4,2948(r1)
    3518:	90 e1 00 10 	stw     r7,16(r1)
    351c:	90 81 00 14 	stw     r4,20(r1)
    3520:	48 00 00 01 	bl      3520 <ApcInitNode+0x2ddc>
    3524:	2c 83 00 00 	cmpwi   cr1,r3,0
    3528:	40 86 30 20 	bne-    cr1,6548 <ApcInitNode+0x5e04>
    352c:	38 00 01 18 	li      r0,280
    3530:	39 40 00 00 	li      r10,0
    3534:	38 61 0b 90 	addi    r3,r1,2960
    3538:	90 01 0b 90 	stw     r0,2960(r1)
    353c:	91 41 0b 94 	stw     r10,2964(r1)
    3540:	90 01 00 10 	stw     r0,16(r1)
    3544:	91 41 00 14 	stw     r10,20(r1)
    3548:	48 00 00 01 	bl      3548 <ApcInitNode+0x2e04>
    354c:	2f 03 00 00 	cmpwi   cr6,r3,0
    3550:	40 9a 2f cc 	bne-    cr6,651c <ApcInitNode+0x5dd8>
    3554:	39 60 01 19 	li      r11,281
    3558:	38 80 00 00 	li      r4,0
    355c:	38 61 0b a0 	addi    r3,r1,2976
    3560:	91 61 0b a0 	stw     r11,2976(r1)
    3564:	90 81 0b a4 	stw     r4,2980(r1)
    3568:	91 61 00 10 	stw     r11,16(r1)
    356c:	90 81 00 14 	stw     r4,20(r1)
    3570:	48 00 00 01 	bl      3570 <ApcInitNode+0x2e2c>
    3574:	2f 83 00 00 	cmpwi   cr7,r3,0
    3578:	40 9e 2f 78 	bne-    cr7,64f0 <ApcInitNode+0x5dac>
    357c:	38 00 01 1a 	li      r0,282
    3580:	3b e0 00 00 	li      r31,0
    3584:	38 61 0b b0 	addi    r3,r1,2992
    3588:	90 01 0b b0 	stw     r0,2992(r1)
    358c:	93 e1 0b b4 	stw     r31,2996(r1)
    3590:	90 01 00 10 	stw     r0,16(r1)
    3594:	93 e1 00 14 	stw     r31,20(r1)
    3598:	48 00 00 01 	bl      3598 <ApcInitNode+0x2e54>
    359c:	2c 03 00 00 	cmpwi   r3,0
    35a0:	40 82 2f 24 	bne-    64c4 <ApcInitNode+0x5d80>
    35a4:	38 a0 01 1b 	li      r5,283
    35a8:	38 80 00 00 	li      r4,0
    35ac:	38 61 0b c0 	addi    r3,r1,3008
    35b0:	90 a1 0b c0 	stw     r5,3008(r1)
    35b4:	90 81 0b c4 	stw     r4,3012(r1)
    35b8:	90 a1 00 10 	stw     r5,16(r1)
    35bc:	90 81 00 14 	stw     r4,20(r1)
    35c0:	48 00 00 01 	bl      35c0 <ApcInitNode+0x2e7c>
    35c4:	2c 83 00 00 	cmpwi   cr1,r3,0
    35c8:	40 86 2e d0 	bne-    cr1,6498 <ApcInitNode+0x5d54>
    35cc:	38 00 01 1c 	li      r0,284
    35d0:	38 e0 00 00 	li      r7,0
    35d4:	38 61 0b d0 	addi    r3,r1,3024
    35d8:	90 01 0b d0 	stw     r0,3024(r1)
    35dc:	90 e1 0b d4 	stw     r7,3028(r1)
    35e0:	90 01 00 10 	stw     r0,16(r1)
    35e4:	90 e1 00 14 	stw     r7,20(r1)
    35e8:	48 00 00 01 	bl      35e8 <ApcInitNode+0x2ea4>
    35ec:	2f 03 00 00 	cmpwi   cr6,r3,0
    35f0:	40 9a 2e 7c 	bne-    cr6,646c <ApcInitNode+0x5d28>
    35f4:	39 40 01 1e 	li      r10,286
    35f8:	38 80 00 00 	li      r4,0
    35fc:	38 61 0b e0 	addi    r3,r1,3040
    3600:	91 41 0b e0 	stw     r10,3040(r1)
    3604:	90 81 0b e4 	stw     r4,3044(r1)
    3608:	91 41 00 10 	stw     r10,16(r1)
    360c:	90 81 00 14 	stw     r4,20(r1)
    3610:	48 00 00 01 	bl      3610 <ApcInitNode+0x2ecc>
    3614:	2f 83 00 00 	cmpwi   cr7,r3,0
    3618:	40 9e 2e 28 	bne-    cr7,6440 <ApcInitNode+0x5cfc>
    361c:	38 00 01 1f 	li      r0,287
    3620:	39 60 00 00 	li      r11,0
    3624:	38 61 0b f0 	addi    r3,r1,3056
    3628:	90 01 0b f0 	stw     r0,3056(r1)
    362c:	91 61 0b f4 	stw     r11,3060(r1)
    3630:	90 01 00 10 	stw     r0,16(r1)
    3634:	91 61 00 14 	stw     r11,20(r1)
    3638:	48 00 00 01 	bl      3638 <ApcInitNode+0x2ef4>
    363c:	2c 03 00 00 	cmpwi   r3,0
    3640:	40 82 2d d4 	bne-    6414 <ApcInitNode+0x5cd0>
    3644:	3b e0 01 20 	li      r31,288
    3648:	38 80 00 00 	li      r4,0
    364c:	38 61 0c 00 	addi    r3,r1,3072
    3650:	93 e1 0c 00 	stw     r31,3072(r1)
    3654:	90 81 0c 04 	stw     r4,3076(r1)
    3658:	93 e1 00 10 	stw     r31,16(r1)
    365c:	90 81 00 14 	stw     r4,20(r1)
    3660:	48 00 00 01 	bl      3660 <ApcInitNode+0x2f1c>
    3664:	2c 83 00 00 	cmpwi   cr1,r3,0
    3668:	40 86 2d 80 	bne-    cr1,63e8 <ApcInitNode+0x5ca4>
    366c:	38 00 01 21 	li      r0,289
    3670:	38 a0 00 00 	li      r5,0
    3674:	38 61 0c 10 	addi    r3,r1,3088
    3678:	90 01 0c 10 	stw     r0,3088(r1)
    367c:	90 a1 0c 14 	stw     r5,3092(r1)
    3680:	90 01 00 10 	stw     r0,16(r1)
    3684:	90 a1 00 14 	stw     r5,20(r1)
    3688:	48 00 00 01 	bl      3688 <ApcInitNode+0x2f44>
    368c:	2f 03 00 00 	cmpwi   cr6,r3,0
    3690:	40 9a 2d 2c 	bne-    cr6,63bc <ApcInitNode+0x5c78>
    3694:	38 e0 01 22 	li      r7,290
    3698:	38 80 00 00 	li      r4,0
    369c:	38 61 0c 20 	addi    r3,r1,3104
    36a0:	90 e1 0c 20 	stw     r7,3104(r1)
    36a4:	90 81 0c 24 	stw     r4,3108(r1)
    36a8:	90 e1 00 10 	stw     r7,16(r1)
    36ac:	90 81 00 14 	stw     r4,20(r1)
    36b0:	48 00 00 01 	bl      36b0 <ApcInitNode+0x2f6c>
    36b4:	2f 83 00 00 	cmpwi   cr7,r3,0
    36b8:	40 9e 2c d8 	bne-    cr7,6390 <ApcInitNode+0x5c4c>
    36bc:	38 00 01 23 	li      r0,291
    36c0:	39 40 00 00 	li      r10,0
    36c4:	38 61 0c 30 	addi    r3,r1,3120
    36c8:	90 01 0c 30 	stw     r0,3120(r1)
    36cc:	91 41 0c 34 	stw     r10,3124(r1)
    36d0:	90 01 00 10 	stw     r0,16(r1)
    36d4:	91 41 00 14 	stw     r10,20(r1)
    36d8:	48 00 00 01 	bl      36d8 <ApcInitNode+0x2f94>
    36dc:	2c 03 00 00 	cmpwi   r3,0
    36e0:	40 82 2c 84 	bne-    6364 <ApcInitNode+0x5c20>
    36e4:	38 80 01 24 	li      r4,292
    36e8:	3b e0 00 00 	li      r31,0
    36ec:	38 61 0c 40 	addi    r3,r1,3136
    36f0:	90 81 0c 40 	stw     r4,3136(r1)
    36f4:	90 81 00 10 	stw     r4,16(r1)
    36f8:	93 e1 00 14 	stw     r31,20(r1)
    36fc:	93 e1 0c 44 	stw     r31,3140(r1)
    3700:	48 00 00 01 	bl      3700 <ApcInitNode+0x2fbc>
    3704:	2c 83 00 00 	cmpwi   cr1,r3,0
    3708:	40 86 2c 30 	bne-    cr1,6338 <ApcInitNode+0x5bf4>
    370c:	38 00 01 25 	li      r0,293
    3710:	38 61 0c 50 	addi    r3,r1,3152
    3714:	90 01 0c 50 	stw     r0,3152(r1)
    3718:	90 01 00 10 	stw     r0,16(r1)
    371c:	93 e1 00 14 	stw     r31,20(r1)
    3720:	93 e1 0c 54 	stw     r31,3156(r1)
    3724:	48 00 00 01 	bl      3724 <ApcInitNode+0x2fe0>
    3728:	2f 03 00 00 	cmpwi   cr6,r3,0
    372c:	40 9a 63 ec 	bne-    cr6,9b18 <ApcInitNode+0x93d4>
    3730:	38 80 01 26 	li      r4,294
    3734:	38 61 0c 60 	addi    r3,r1,3168
    3738:	90 81 0c 60 	stw     r4,3168(r1)
    373c:	90 81 00 10 	stw     r4,16(r1)
    3740:	93 e1 00 14 	stw     r31,20(r1)
    3744:	93 e1 0c 64 	stw     r31,3172(r1)
    3748:	48 00 00 01 	bl      3748 <ApcInitNode+0x3004>
    374c:	2f 83 00 00 	cmpwi   cr7,r3,0
    3750:	40 9e 63 9c 	bne-    cr7,9aec <ApcInitNode+0x93a8>
    3754:	38 00 01 27 	li      r0,295
    3758:	38 61 0c 70 	addi    r3,r1,3184
    375c:	90 01 0c 70 	stw     r0,3184(r1)
    3760:	90 01 00 10 	stw     r0,16(r1)
    3764:	93 e1 00 14 	stw     r31,20(r1)
    3768:	93 e1 0c 74 	stw     r31,3188(r1)
    376c:	48 00 00 01 	bl      376c <ApcInitNode+0x3028>
    3770:	2c 03 00 00 	cmpwi   r3,0
    3774:	40 82 63 4c 	bne-    9ac0 <ApcInitNode+0x937c>
    3778:	38 80 01 28 	li      r4,296
    377c:	38 61 0c 80 	addi    r3,r1,3200
    3780:	90 81 0c 80 	stw     r4,3200(r1)
    3784:	90 81 00 10 	stw     r4,16(r1)
    3788:	93 e1 00 14 	stw     r31,20(r1)
    378c:	93 e1 0c 84 	stw     r31,3204(r1)
    3790:	48 00 00 01 	bl      3790 <ApcInitNode+0x304c>
    3794:	2c 83 00 00 	cmpwi   cr1,r3,0
    3798:	40 86 62 fc 	bne-    cr1,9a94 <ApcInitNode+0x9350>
    379c:	38 00 01 2a 	li      r0,298
    37a0:	38 61 0c 90 	addi    r3,r1,3216
    37a4:	90 01 0c 90 	stw     r0,3216(r1)
    37a8:	90 01 00 10 	stw     r0,16(r1)
    37ac:	93 e1 00 14 	stw     r31,20(r1)
    37b0:	93 e1 0c 94 	stw     r31,3220(r1)
    37b4:	48 00 00 01 	bl      37b4 <ApcInitNode+0x3070>
    37b8:	2f 03 00 00 	cmpwi   cr6,r3,0
    37bc:	40 9a 62 ac 	bne-    cr6,9a68 <ApcInitNode+0x9324>
    37c0:	38 80 01 2b 	li      r4,299
    37c4:	38 61 0c a0 	addi    r3,r1,3232
    37c8:	90 81 0c a0 	stw     r4,3232(r1)
    37cc:	90 81 00 10 	stw     r4,16(r1)
    37d0:	93 e1 00 14 	stw     r31,20(r1)
    37d4:	93 e1 0c a4 	stw     r31,3236(r1)
    37d8:	48 00 00 01 	bl      37d8 <ApcInitNode+0x3094>
    37dc:	2f 83 00 00 	cmpwi   cr7,r3,0
    37e0:	40 9e 62 5c 	bne-    cr7,9a3c <ApcInitNode+0x92f8>
    37e4:	38 00 01 2c 	li      r0,300
    37e8:	38 61 0c b0 	addi    r3,r1,3248
    37ec:	90 01 0c b0 	stw     r0,3248(r1)
    37f0:	90 01 00 10 	stw     r0,16(r1)
    37f4:	93 e1 00 14 	stw     r31,20(r1)
    37f8:	93 e1 0c b4 	stw     r31,3252(r1)
    37fc:	48 00 00 01 	bl      37fc <ApcInitNode+0x30b8>
    3800:	2c 03 00 00 	cmpwi   r3,0
    3804:	40 82 62 0c 	bne-    9a10 <ApcInitNode+0x92cc>
    3808:	38 80 01 2d 	li      r4,301
    380c:	38 61 0c c0 	addi    r3,r1,3264
    3810:	90 81 0c c0 	stw     r4,3264(r1)
    3814:	90 81 00 10 	stw     r4,16(r1)
    3818:	93 e1 00 14 	stw     r31,20(r1)
    381c:	93 e1 0c c4 	stw     r31,3268(r1)
    3820:	48 00 00 01 	bl      3820 <ApcInitNode+0x30dc>
    3824:	2c 83 00 00 	cmpwi   cr1,r3,0
    3828:	40 86 61 bc 	bne-    cr1,99e4 <ApcInitNode+0x92a0>
    382c:	38 00 01 2e 	li      r0,302
    3830:	38 61 0c d0 	addi    r3,r1,3280
    3834:	90 01 0c d0 	stw     r0,3280(r1)
    3838:	93 e1 0c d4 	stw     r31,3284(r1)
    383c:	90 01 00 10 	stw     r0,16(r1)
    3840:	93 e1 00 14 	stw     r31,20(r1)
    3844:	48 00 00 01 	bl      3844 <ApcInitNode+0x3100>
    3848:	2f 03 00 00 	cmpwi   cr6,r3,0
    384c:	40 9a 34 8c 	bne-    cr6,6cd8 <ApcInitNode+0x6594>
    3850:	38 00 01 47 	li      r0,327
    3854:	39 20 00 03 	li      r9,3
    3858:	38 61 0c e0 	addi    r3,r1,3296
    385c:	90 01 0c e0 	stw     r0,3296(r1)
    3860:	91 21 0c e4 	stw     r9,3300(r1)
    3864:	4b ff d5 c0 	b       e24 <ApcInitNode+0x6e0>
    3868:	39 00 00 08 	li      r8,8
    386c:	38 80 00 00 	li      r4,0
    3870:	38 61 08 f0 	addi    r3,r1,2288
    3874:	91 01 08 f0 	stw     r8,2288(r1)
    3878:	90 81 08 f4 	stw     r4,2292(r1)
    387c:	91 01 00 10 	stw     r8,16(r1)
    3880:	90 81 00 14 	stw     r4,20(r1)
    3884:	48 00 00 01 	bl      3884 <ApcInitNode+0x3140>
    3888:	2c 83 00 00 	cmpwi   cr1,r3,0
    388c:	40 86 20 e0 	bne-    cr1,596c <ApcInitNode+0x5228>
    3890:	38 00 00 0c 	li      r0,12
    3894:	39 80 00 00 	li      r12,0
    3898:	38 61 09 00 	addi    r3,r1,2304
    389c:	90 01 09 00 	stw     r0,2304(r1)
    38a0:	91 81 09 04 	stw     r12,2308(r1)
    38a4:	90 01 00 10 	stw     r0,16(r1)
    38a8:	91 81 00 14 	stw     r12,20(r1)
    38ac:	48 00 00 01 	bl      38ac <ApcInitNode+0x3168>
    38b0:	2f 03 00 00 	cmpwi   cr6,r3,0
    38b4:	40 9a 20 8c 	bne-    cr6,5940 <ApcInitNode+0x51fc>
    38b8:	39 60 01 13 	li      r11,275
    38bc:	38 80 00 00 	li      r4,0
    38c0:	38 61 09 10 	addi    r3,r1,2320
    38c4:	91 61 09 10 	stw     r11,2320(r1)
    38c8:	90 81 09 14 	stw     r4,2324(r1)
    38cc:	91 61 00 10 	stw     r11,16(r1)
    38d0:	90 81 00 14 	stw     r4,20(r1)
    38d4:	48 00 00 01 	bl      38d4 <ApcInitNode+0x3190>
    38d8:	2f 83 00 00 	cmpwi   cr7,r3,0
    38dc:	40 9e 20 38 	bne-    cr7,5914 <ApcInitNode+0x51d0>
    38e0:	38 00 01 05 	li      r0,261
    38e4:	38 e0 00 00 	li      r7,0
    38e8:	38 61 09 20 	addi    r3,r1,2336
    38ec:	90 01 09 20 	stw     r0,2336(r1)
    38f0:	90 e1 09 24 	stw     r7,2340(r1)
    38f4:	90 01 00 10 	stw     r0,16(r1)
    38f8:	90 e1 00 14 	stw     r7,20(r1)
    38fc:	48 00 00 01 	bl      38fc <ApcInitNode+0x31b8>
    3900:	2c 03 00 00 	cmpwi   r3,0
    3904:	40 82 1f e4 	bne-    58e8 <ApcInitNode+0x51a4>
    3908:	3b e0 01 11 	li      r31,273
    390c:	38 80 00 00 	li      r4,0
    3910:	38 61 09 30 	addi    r3,r1,2352
    3914:	93 e1 09 30 	stw     r31,2352(r1)
    3918:	90 81 09 34 	stw     r4,2356(r1)
    391c:	93 e1 00 10 	stw     r31,16(r1)
    3920:	90 81 00 14 	stw     r4,20(r1)
    3924:	48 00 00 01 	bl      3924 <ApcInitNode+0x31e0>
    3928:	2c 83 00 00 	cmpwi   cr1,r3,0
    392c:	40 86 1f 90 	bne-    cr1,58bc <ApcInitNode+0x5178>
    3930:	38 00 01 1d 	li      r0,285
    3934:	38 a0 00 00 	li      r5,0
    3938:	38 61 09 40 	addi    r3,r1,2368
    393c:	90 01 09 40 	stw     r0,2368(r1)
    3940:	90 a1 09 44 	stw     r5,2372(r1)
    3944:	90 01 00 10 	stw     r0,16(r1)
    3948:	90 a1 00 14 	stw     r5,20(r1)
    394c:	48 00 00 01 	bl      394c <ApcInitNode+0x3208>
    3950:	2f 03 00 00 	cmpwi   cr6,r3,0
    3954:	40 9a 1f 3c 	bne-    cr6,5890 <ApcInitNode+0x514c>
    3958:	38 c0 01 29 	li      r6,297
    395c:	38 80 00 00 	li      r4,0
    3960:	38 61 09 50 	addi    r3,r1,2384
    3964:	90 c1 09 50 	stw     r6,2384(r1)
    3968:	90 81 09 54 	stw     r4,2388(r1)
    396c:	90 c1 00 10 	stw     r6,16(r1)
    3970:	90 81 00 14 	stw     r4,20(r1)
    3974:	48 00 00 01 	bl      3974 <ApcInitNode+0x3230>
    3978:	2f 83 00 00 	cmpwi   cr7,r3,0
    397c:	40 9e 1e e8 	bne-    cr7,5864 <ApcInitNode+0x5120>
    3980:	38 00 01 35 	li      r0,309
    3984:	39 60 00 00 	li      r11,0
    3988:	38 61 09 60 	addi    r3,r1,2400
    398c:	90 01 09 60 	stw     r0,2400(r1)
    3990:	91 61 09 64 	stw     r11,2404(r1)
    3994:	90 01 00 10 	stw     r0,16(r1)
    3998:	91 61 00 14 	stw     r11,20(r1)
    399c:	48 00 00 01 	bl      399c <ApcInitNode+0x3258>
    39a0:	2c 03 00 00 	cmpwi   r3,0
    39a4:	40 82 1e 94 	bne-    5838 <ApcInitNode+0x50f4>
    39a8:	39 00 01 41 	li      r8,321
    39ac:	38 80 00 00 	li      r4,0
    39b0:	38 61 09 70 	addi    r3,r1,2416
    39b4:	91 01 09 70 	stw     r8,2416(r1)
    39b8:	90 81 09 74 	stw     r4,2420(r1)
    39bc:	91 01 00 10 	stw     r8,16(r1)
    39c0:	90 81 00 14 	stw     r4,20(r1)
    39c4:	48 00 00 01 	bl      39c4 <ApcInitNode+0x3280>
    39c8:	2c 83 00 00 	cmpwi   cr1,r3,0
    39cc:	40 86 1e 40 	bne-    cr1,580c <ApcInitNode+0x50c8>
    39d0:	38 00 00 ff 	li      r0,255
    39d4:	3b e0 00 00 	li      r31,0
    39d8:	38 61 09 80 	addi    r3,r1,2432
    39dc:	90 01 09 80 	stw     r0,2432(r1)
    39e0:	93 e1 09 84 	stw     r31,2436(r1)
    39e4:	90 01 00 10 	stw     r0,16(r1)
    39e8:	93 e1 00 14 	stw     r31,20(r1)
    39ec:	48 00 00 01 	bl      39ec <ApcInitNode+0x32a8>
    39f0:	2f 03 00 00 	cmpwi   cr6,r3,0
    39f4:	40 9a 1d ec 	bne-    cr6,57e0 <ApcInitNode+0x509c>
    39f8:	38 a0 01 00 	li      r5,256
    39fc:	38 80 00 00 	li      r4,0
    3a00:	38 61 09 90 	addi    r3,r1,2448
    3a04:	90 a1 09 90 	stw     r5,2448(r1)
    3a08:	90 81 09 94 	stw     r4,2452(r1)
    3a0c:	90 a1 00 10 	stw     r5,16(r1)
    3a10:	90 81 00 14 	stw     r4,20(r1)
    3a14:	48 00 00 01 	bl      3a14 <ApcInitNode+0x32d0>
    3a18:	2f 83 00 00 	cmpwi   cr7,r3,0
    3a1c:	40 9e 1d 98 	bne-    cr7,57b4 <ApcInitNode+0x5070>
    3a20:	38 00 01 01 	li      r0,257
    3a24:	38 c0 00 00 	li      r6,0
    3a28:	38 61 09 a0 	addi    r3,r1,2464
    3a2c:	90 01 09 a0 	stw     r0,2464(r1)
    3a30:	90 c1 09 a4 	stw     r6,2468(r1)
    3a34:	90 01 00 10 	stw     r0,16(r1)
    3a38:	90 c1 00 14 	stw     r6,20(r1)
    3a3c:	48 00 00 01 	bl      3a3c <ApcInitNode+0x32f8>
    3a40:	2c 03 00 00 	cmpwi   r3,0
    3a44:	40 82 1d 44 	bne-    5788 <ApcInitNode+0x5044>
    3a48:	39 60 01 02 	li      r11,258
    3a4c:	38 80 00 00 	li      r4,0
    3a50:	38 61 09 b0 	addi    r3,r1,2480
    3a54:	91 61 09 b0 	stw     r11,2480(r1)
    3a58:	90 81 09 b4 	stw     r4,2484(r1)
    3a5c:	91 61 00 10 	stw     r11,16(r1)
    3a60:	90 81 00 14 	stw     r4,20(r1)
    3a64:	48 00 00 01 	bl      3a64 <ApcInitNode+0x3320>
    3a68:	2c 83 00 00 	cmpwi   cr1,r3,0
    3a6c:	40 86 1c f0 	bne-    cr1,575c <ApcInitNode+0x5018>
    3a70:	38 00 01 03 	li      r0,259
    3a74:	39 00 00 00 	li      r8,0
    3a78:	38 61 09 c0 	addi    r3,r1,2496
    3a7c:	90 01 09 c0 	stw     r0,2496(r1)
    3a80:	91 01 09 c4 	stw     r8,2500(r1)
    3a84:	90 01 00 10 	stw     r0,16(r1)
    3a88:	91 01 00 14 	stw     r8,20(r1)
    3a8c:	48 00 00 01 	bl      3a8c <ApcInitNode+0x3348>
    3a90:	2f 03 00 00 	cmpwi   cr6,r3,0
    3a94:	40 9a 1c 9c 	bne-    cr6,5730 <ApcInitNode+0x4fec>
    3a98:	3b e0 01 04 	li      r31,260
    3a9c:	38 80 00 00 	li      r4,0
    3aa0:	38 61 09 d0 	addi    r3,r1,2512
    3aa4:	93 e1 09 d0 	stw     r31,2512(r1)
    3aa8:	90 81 09 d4 	stw     r4,2516(r1)
    3aac:	93 e1 00 10 	stw     r31,16(r1)
    3ab0:	90 81 00 14 	stw     r4,20(r1)
    3ab4:	48 00 00 01 	bl      3ab4 <ApcInitNode+0x3370>
    3ab8:	2f 83 00 00 	cmpwi   cr7,r3,0
    3abc:	40 9e 1c 48 	bne-    cr7,5704 <ApcInitNode+0x4fc0>
    3ac0:	38 00 01 06 	li      r0,262
    3ac4:	38 a0 00 00 	li      r5,0
    3ac8:	38 61 09 e0 	addi    r3,r1,2528
    3acc:	90 01 09 e0 	stw     r0,2528(r1)
    3ad0:	90 a1 09 e4 	stw     r5,2532(r1)
    3ad4:	90 01 00 10 	stw     r0,16(r1)
    3ad8:	90 a1 00 14 	stw     r5,20(r1)
    3adc:	48 00 00 01 	bl      3adc <ApcInitNode+0x3398>
    3ae0:	2c 03 00 00 	cmpwi   r3,0
    3ae4:	40 82 1b f4 	bne-    56d8 <ApcInitNode+0x4f94>
    3ae8:	38 c0 01 07 	li      r6,263
    3aec:	38 80 00 00 	li      r4,0
    3af0:	38 61 09 f0 	addi    r3,r1,2544
    3af4:	90 c1 09 f0 	stw     r6,2544(r1)
    3af8:	90 81 09 f4 	stw     r4,2548(r1)
    3afc:	90 c1 00 10 	stw     r6,16(r1)
    3b00:	90 81 00 14 	stw     r4,20(r1)
    3b04:	48 00 00 01 	bl      3b04 <ApcInitNode+0x33c0>
    3b08:	2c 83 00 00 	cmpwi   cr1,r3,0
    3b0c:	40 86 55 0c 	bne-    cr1,9018 <ApcInitNode+0x88d4>
    3b10:	38 00 01 08 	li      r0,264
    3b14:	39 60 00 00 	li      r11,0
    3b18:	38 61 0a 00 	addi    r3,r1,2560
    3b1c:	90 01 0a 00 	stw     r0,2560(r1)
    3b20:	91 61 0a 04 	stw     r11,2564(r1)
    3b24:	90 01 00 10 	stw     r0,16(r1)
    3b28:	91 61 00 14 	stw     r11,20(r1)
    3b2c:	48 00 00 01 	bl      3b2c <ApcInitNode+0x33e8>
    3b30:	2f 03 00 00 	cmpwi   cr6,r3,0
    3b34:	40 9a 54 b8 	bne-    cr6,8fec <ApcInitNode+0x88a8>
    3b38:	39 00 01 09 	li      r8,265
    3b3c:	38 80 00 00 	li      r4,0
    3b40:	38 61 0a 10 	addi    r3,r1,2576
    3b44:	91 01 0a 10 	stw     r8,2576(r1)
    3b48:	90 81 0a 14 	stw     r4,2580(r1)
    3b4c:	91 01 00 10 	stw     r8,16(r1)
    3b50:	90 81 00 14 	stw     r4,20(r1)
    3b54:	48 00 00 01 	bl      3b54 <ApcInitNode+0x3410>
    3b58:	2f 83 00 00 	cmpwi   cr7,r3,0
    3b5c:	40 9e 54 64 	bne-    cr7,8fc0 <ApcInitNode+0x887c>
    3b60:	38 00 01 0a 	li      r0,266
    3b64:	3b e0 00 00 	li      r31,0
    3b68:	38 61 0a 20 	addi    r3,r1,2592
    3b6c:	90 01 0a 20 	stw     r0,2592(r1)
    3b70:	90 01 00 10 	stw     r0,16(r1)
    3b74:	93 e1 00 14 	stw     r31,20(r1)
    3b78:	93 e1 0a 24 	stw     r31,2596(r1)
    3b7c:	48 00 00 01 	bl      3b7c <ApcInitNode+0x3438>
    3b80:	2c 03 00 00 	cmpwi   r3,0
    3b84:	40 82 54 10 	bne-    8f94 <ApcInitNode+0x8850>
    3b88:	38 80 01 0b 	li      r4,267
    3b8c:	38 61 0a 30 	addi    r3,r1,2608
    3b90:	90 81 0a 30 	stw     r4,2608(r1)
    3b94:	90 81 00 10 	stw     r4,16(r1)
    3b98:	93 e1 00 14 	stw     r31,20(r1)
    3b9c:	93 e1 0a 34 	stw     r31,2612(r1)
    3ba0:	48 00 00 01 	bl      3ba0 <ApcInitNode+0x345c>
    3ba4:	2c 83 00 00 	cmpwi   cr1,r3,0
    3ba8:	40 86 53 c0 	bne-    cr1,8f68 <ApcInitNode+0x8824>
    3bac:	38 00 01 0c 	li      r0,268
    3bb0:	38 61 0a 40 	addi    r3,r1,2624
    3bb4:	90 01 0a 40 	stw     r0,2624(r1)
    3bb8:	90 01 00 10 	stw     r0,16(r1)
    3bbc:	93 e1 00 14 	stw     r31,20(r1)
    3bc0:	93 e1 0a 44 	stw     r31,2628(r1)
    3bc4:	48 00 00 01 	bl      3bc4 <ApcInitNode+0x3480>
    3bc8:	2f 03 00 00 	cmpwi   cr6,r3,0
    3bcc:	40 9a 53 70 	bne-    cr6,8f3c <ApcInitNode+0x87f8>
    3bd0:	38 80 01 0d 	li      r4,269
    3bd4:	38 61 0a 50 	addi    r3,r1,2640
    3bd8:	90 81 0a 50 	stw     r4,2640(r1)
    3bdc:	90 81 00 10 	stw     r4,16(r1)
    3be0:	93 e1 00 14 	stw     r31,20(r1)
    3be4:	93 e1 0a 54 	stw     r31,2644(r1)
    3be8:	48 00 00 01 	bl      3be8 <ApcInitNode+0x34a4>
    3bec:	2f 83 00 00 	cmpwi   cr7,r3,0
    3bf0:	40 9e 53 20 	bne-    cr7,8f10 <ApcInitNode+0x87cc>
    3bf4:	38 00 01 0e 	li      r0,270
    3bf8:	38 61 0a 60 	addi    r3,r1,2656
    3bfc:	90 01 0a 60 	stw     r0,2656(r1)
    3c00:	90 01 00 10 	stw     r0,16(r1)
    3c04:	93 e1 00 14 	stw     r31,20(r1)
    3c08:	93 e1 0a 64 	stw     r31,2660(r1)
    3c0c:	48 00 00 01 	bl      3c0c <ApcInitNode+0x34c8>
    3c10:	2c 03 00 00 	cmpwi   r3,0
    3c14:	40 82 52 d0 	bne-    8ee4 <ApcInitNode+0x87a0>
    3c18:	38 80 01 0f 	li      r4,271
    3c1c:	38 61 0a 70 	addi    r3,r1,2672
    3c20:	90 81 0a 70 	stw     r4,2672(r1)
    3c24:	90 81 00 10 	stw     r4,16(r1)
    3c28:	93 e1 00 14 	stw     r31,20(r1)
    3c2c:	93 e1 0a 74 	stw     r31,2676(r1)
    3c30:	48 00 00 01 	bl      3c30 <ApcInitNode+0x34ec>
    3c34:	2c 83 00 00 	cmpwi   cr1,r3,0
    3c38:	40 86 32 e0 	bne-    cr1,6f18 <ApcInitNode+0x67d4>
    3c3c:	38 00 01 12 	li      r0,274
    3c40:	38 61 0a 80 	addi    r3,r1,2688
    3c44:	90 01 0a 80 	stw     r0,2688(r1)
    3c48:	90 01 00 10 	stw     r0,16(r1)
    3c4c:	93 e1 00 14 	stw     r31,20(r1)
    3c50:	93 e1 0a 84 	stw     r31,2692(r1)
    3c54:	48 00 00 01 	bl      3c54 <ApcInitNode+0x3510>
    3c58:	2f 03 00 00 	cmpwi   cr6,r3,0
    3c5c:	40 9a 32 90 	bne-    cr6,6eec <ApcInitNode+0x67a8>
    3c60:	38 80 01 14 	li      r4,276
    3c64:	38 61 0a 90 	addi    r3,r1,2704
    3c68:	90 81 0a 90 	stw     r4,2704(r1)
    3c6c:	90 81 00 10 	stw     r4,16(r1)
    3c70:	93 e1 00 14 	stw     r31,20(r1)
    3c74:	93 e1 0a 94 	stw     r31,2708(r1)
    3c78:	48 00 00 01 	bl      3c78 <ApcInitNode+0x3534>
    3c7c:	2f 83 00 00 	cmpwi   cr7,r3,0
    3c80:	40 9e 32 40 	bne-    cr7,6ec0 <ApcInitNode+0x677c>
    3c84:	38 00 01 15 	li      r0,277
    3c88:	38 61 0a a0 	addi    r3,r1,2720
    3c8c:	90 01 0a a0 	stw     r0,2720(r1)
    3c90:	90 01 00 10 	stw     r0,16(r1)
    3c94:	93 e1 00 14 	stw     r31,20(r1)
    3c98:	93 e1 0a a4 	stw     r31,2724(r1)
    3c9c:	48 00 00 01 	bl      3c9c <ApcInitNode+0x3558>
    3ca0:	2c 03 00 00 	cmpwi   r3,0
    3ca4:	40 82 31 f0 	bne-    6e94 <ApcInitNode+0x6750>
    3ca8:	38 80 01 16 	li      r4,278
    3cac:	38 61 0a b0 	addi    r3,r1,2736
    3cb0:	90 81 0a b0 	stw     r4,2736(r1)
    3cb4:	93 e1 0a b4 	stw     r31,2740(r1)
    3cb8:	90 81 00 10 	stw     r4,16(r1)
    3cbc:	93 e1 00 14 	stw     r31,20(r1)
    3cc0:	48 00 00 01 	bl      3cc0 <ApcInitNode+0x357c>
    3cc4:	2c 83 00 00 	cmpwi   cr1,r3,0
    3cc8:	40 86 53 d4 	bne-    cr1,909c <ApcInitNode+0x8958>
    3ccc:	38 00 01 47 	li      r0,327
    3cd0:	39 20 00 03 	li      r9,3
    3cd4:	38 61 0a c0 	addi    r3,r1,2752
    3cd8:	90 01 0a c0 	stw     r0,2752(r1)
    3cdc:	91 21 0a c4 	stw     r9,2756(r1)
    3ce0:	4b ff d1 44 	b       e24 <ApcInitNode+0x6e0>
    3ce4:	38 c0 00 03 	li      r6,3
    3ce8:	38 80 00 00 	li      r4,0
    3cec:	38 61 06 a0 	addi    r3,r1,1696
    3cf0:	90 c1 06 a0 	stw     r6,1696(r1)
    3cf4:	90 81 06 a4 	stw     r4,1700(r1)
    3cf8:	90 c1 00 10 	stw     r6,16(r1)
    3cfc:	90 81 00 14 	stw     r4,20(r1)
    3d00:	48 00 00 01 	bl      3d00 <ApcInitNode+0x35bc>
    3d04:	2c 83 00 00 	cmpwi   cr1,r3,0
    3d08:	40 86 26 04 	bne-    cr1,630c <ApcInitNode+0x5bc8>
    3d0c:	38 00 00 07 	li      r0,7
    3d10:	39 40 00 00 	li      r10,0
    3d14:	38 61 06 b0 	addi    r3,r1,1712
    3d18:	90 01 06 b0 	stw     r0,1712(r1)
    3d1c:	91 41 06 b4 	stw     r10,1716(r1)
    3d20:	90 01 00 10 	stw     r0,16(r1)
    3d24:	91 41 00 14 	stw     r10,20(r1)
    3d28:	48 00 00 01 	bl      3d28 <ApcInitNode+0x35e4>
    3d2c:	2f 03 00 00 	cmpwi   cr6,r3,0
    3d30:	40 9a 25 b0 	bne-    cr6,62e0 <ApcInitNode+0x5b9c>
    3d34:	39 00 00 0b 	li      r8,11
    3d38:	38 80 00 00 	li      r4,0
    3d3c:	38 61 06 c0 	addi    r3,r1,1728
    3d40:	91 01 06 c0 	stw     r8,1728(r1)
    3d44:	90 81 06 c4 	stw     r4,1732(r1)
    3d48:	91 01 00 10 	stw     r8,16(r1)
    3d4c:	90 81 00 14 	stw     r4,20(r1)
    3d50:	48 00 00 01 	bl      3d50 <ApcInitNode+0x360c>
    3d54:	2f 83 00 00 	cmpwi   cr7,r3,0
    3d58:	40 9e 25 5c 	bne-    cr7,62b4 <ApcInitNode+0x5b70>
    3d5c:	38 00 00 0f 	li      r0,15
    3d60:	39 80 00 00 	li      r12,0
    3d64:	38 61 06 d0 	addi    r3,r1,1744
    3d68:	90 01 06 d0 	stw     r0,1744(r1)
    3d6c:	91 81 06 d4 	stw     r12,1748(r1)
    3d70:	90 01 00 10 	stw     r0,16(r1)
    3d74:	91 81 00 14 	stw     r12,20(r1)
    3d78:	48 00 00 01 	bl      3d78 <ApcInitNode+0x3634>
    3d7c:	2c 03 00 00 	cmpwi   r3,0
    3d80:	40 82 25 08 	bne-    6288 <ApcInitNode+0x5b44>
    3d84:	39 60 00 92 	li      r11,146
    3d88:	38 80 00 00 	li      r4,0
    3d8c:	38 61 06 e0 	addi    r3,r1,1760
    3d90:	91 61 06 e0 	stw     r11,1760(r1)
    3d94:	90 81 06 e4 	stw     r4,1764(r1)
    3d98:	91 61 00 10 	stw     r11,16(r1)
    3d9c:	90 81 00 14 	stw     r4,20(r1)
    3da0:	48 00 00 01 	bl      3da0 <ApcInitNode+0x365c>
    3da4:	2c 83 00 00 	cmpwi   cr1,r3,0
    3da8:	40 86 24 b4 	bne-    cr1,625c <ApcInitNode+0x5b18>
    3dac:	38 00 00 57 	li      r0,87
    3db0:	38 e0 00 00 	li      r7,0
    3db4:	38 61 06 f0 	addi    r3,r1,1776
    3db8:	90 01 06 f0 	stw     r0,1776(r1)
    3dbc:	90 e1 06 f4 	stw     r7,1780(r1)
    3dc0:	90 01 00 10 	stw     r0,16(r1)
    3dc4:	90 e1 00 14 	stw     r7,20(r1)
    3dc8:	48 00 00 01 	bl      3dc8 <ApcInitNode+0x3684>
    3dcc:	2f 03 00 00 	cmpwi   cr6,r3,0
    3dd0:	40 9a 24 60 	bne-    cr6,6230 <ApcInitNode+0x5aec>
    3dd4:	39 40 00 4f 	li      r10,79
    3dd8:	38 80 00 00 	li      r4,0
    3ddc:	38 61 07 00 	addi    r3,r1,1792
    3de0:	91 41 07 00 	stw     r10,1792(r1)
    3de4:	90 81 07 04 	stw     r4,1796(r1)
    3de8:	91 41 00 10 	stw     r10,16(r1)
    3dec:	90 81 00 14 	stw     r4,20(r1)
    3df0:	48 00 00 01 	bl      3df0 <ApcInitNode+0x36ac>
    3df4:	2f 83 00 00 	cmpwi   cr7,r3,0
    3df8:	40 9e 24 0c 	bne-    cr7,6204 <ApcInitNode+0x5ac0>
    3dfc:	38 00 00 50 	li      r0,80
    3e00:	38 a0 00 00 	li      r5,0
    3e04:	38 61 07 10 	addi    r3,r1,1808
    3e08:	90 01 07 10 	stw     r0,1808(r1)
    3e0c:	90 a1 07 14 	stw     r5,1812(r1)
    3e10:	90 01 00 10 	stw     r0,16(r1)
    3e14:	90 a1 00 14 	stw     r5,20(r1)
    3e18:	48 00 00 01 	bl      3e18 <ApcInitNode+0x36d4>
    3e1c:	2c 03 00 00 	cmpwi   r3,0
    3e20:	40 82 23 b8 	bne-    61d8 <ApcInitNode+0x5a94>
    3e24:	38 c0 00 51 	li      r6,81
    3e28:	38 80 00 00 	li      r4,0
    3e2c:	38 61 07 20 	addi    r3,r1,1824
    3e30:	90 c1 07 20 	stw     r6,1824(r1)
    3e34:	90 81 07 24 	stw     r4,1828(r1)
    3e38:	90 c1 00 10 	stw     r6,16(r1)
    3e3c:	90 81 00 14 	stw     r4,20(r1)
    3e40:	48 00 00 01 	bl      3e40 <ApcInitNode+0x36fc>
    3e44:	2c 83 00 00 	cmpwi   cr1,r3,0
    3e48:	40 86 23 64 	bne-    cr1,61ac <ApcInitNode+0x5a68>
    3e4c:	38 00 00 52 	li      r0,82
    3e50:	39 60 00 00 	li      r11,0
    3e54:	38 61 07 30 	addi    r3,r1,1840
    3e58:	90 01 07 30 	stw     r0,1840(r1)
    3e5c:	91 61 07 34 	stw     r11,1844(r1)
    3e60:	90 01 00 10 	stw     r0,16(r1)
    3e64:	91 61 00 14 	stw     r11,20(r1)
    3e68:	48 00 00 01 	bl      3e68 <ApcInitNode+0x3724>
    3e6c:	2f 03 00 00 	cmpwi   cr6,r3,0
    3e70:	40 9a 23 10 	bne-    cr6,6180 <ApcInitNode+0x5a3c>
    3e74:	39 00 00 53 	li      r8,83
    3e78:	38 80 00 00 	li      r4,0
    3e7c:	38 61 07 40 	addi    r3,r1,1856
    3e80:	91 01 07 40 	stw     r8,1856(r1)
    3e84:	90 81 07 44 	stw     r4,1860(r1)
    3e88:	91 01 00 10 	stw     r8,16(r1)
    3e8c:	90 81 00 14 	stw     r4,20(r1)
    3e90:	48 00 00 01 	bl      3e90 <ApcInitNode+0x374c>
    3e94:	2f 83 00 00 	cmpwi   cr7,r3,0
    3e98:	40 9e 22 bc 	bne-    cr7,6154 <ApcInitNode+0x5a10>
    3e9c:	38 00 00 54 	li      r0,84
    3ea0:	39 40 00 00 	li      r10,0
    3ea4:	38 61 07 50 	addi    r3,r1,1872
    3ea8:	90 01 07 50 	stw     r0,1872(r1)
    3eac:	91 41 07 54 	stw     r10,1876(r1)
    3eb0:	90 01 00 10 	stw     r0,16(r1)
    3eb4:	91 41 00 14 	stw     r10,20(r1)
    3eb8:	48 00 00 01 	bl      3eb8 <ApcInitNode+0x3774>
    3ebc:	2c 03 00 00 	cmpwi   r3,0
    3ec0:	40 82 22 68 	bne-    6128 <ApcInitNode+0x59e4>
    3ec4:	38 a0 00 55 	li      r5,85
    3ec8:	38 80 00 00 	li      r4,0
    3ecc:	38 61 07 60 	addi    r3,r1,1888
    3ed0:	90 a1 07 60 	stw     r5,1888(r1)
    3ed4:	90 81 07 64 	stw     r4,1892(r1)
    3ed8:	90 a1 00 10 	stw     r5,16(r1)
    3edc:	90 81 00 14 	stw     r4,20(r1)
    3ee0:	48 00 00 01 	bl      3ee0 <ApcInitNode+0x379c>
    3ee4:	2c 83 00 00 	cmpwi   cr1,r3,0
    3ee8:	40 86 22 14 	bne-    cr1,60fc <ApcInitNode+0x59b8>
    3eec:	38 00 00 56 	li      r0,86
    3ef0:	38 c0 00 00 	li      r6,0
    3ef4:	38 61 07 70 	addi    r3,r1,1904
    3ef8:	90 01 07 70 	stw     r0,1904(r1)
    3efc:	90 c1 07 74 	stw     r6,1908(r1)
    3f00:	90 01 00 10 	stw     r0,16(r1)
    3f04:	90 c1 00 14 	stw     r6,20(r1)
    3f08:	48 00 00 01 	bl      3f08 <ApcInitNode+0x37c4>
    3f0c:	2f 03 00 00 	cmpwi   cr6,r3,0
    3f10:	40 9a 21 c0 	bne-    cr6,60d0 <ApcInitNode+0x598c>
    3f14:	39 60 00 58 	li      r11,88
    3f18:	38 80 00 00 	li      r4,0
    3f1c:	38 61 07 80 	addi    r3,r1,1920
    3f20:	91 61 07 80 	stw     r11,1920(r1)
    3f24:	90 81 07 84 	stw     r4,1924(r1)
    3f28:	91 61 00 10 	stw     r11,16(r1)
    3f2c:	90 81 00 14 	stw     r4,20(r1)
    3f30:	48 00 00 01 	bl      3f30 <ApcInitNode+0x37ec>
    3f34:	2f 83 00 00 	cmpwi   cr7,r3,0
    3f38:	40 9e 21 6c 	bne-    cr7,60a4 <ApcInitNode+0x5960>
    3f3c:	38 00 00 59 	li      r0,89
    3f40:	39 00 00 00 	li      r8,0
    3f44:	38 61 07 90 	addi    r3,r1,1936
    3f48:	90 01 07 90 	stw     r0,1936(r1)
    3f4c:	91 01 07 94 	stw     r8,1940(r1)
    3f50:	90 01 00 10 	stw     r0,16(r1)
    3f54:	91 01 00 14 	stw     r8,20(r1)
    3f58:	48 00 00 01 	bl      3f58 <ApcInitNode+0x3814>
    3f5c:	2c 03 00 00 	cmpwi   r3,0
    3f60:	40 82 21 18 	bne-    6078 <ApcInitNode+0x5934>
    3f64:	39 40 00 5c 	li      r10,92
    3f68:	38 80 00 00 	li      r4,0
    3f6c:	38 61 07 a0 	addi    r3,r1,1952
    3f70:	91 41 07 a0 	stw     r10,1952(r1)
    3f74:	90 81 07 a4 	stw     r4,1956(r1)
    3f78:	91 41 00 10 	stw     r10,16(r1)
    3f7c:	90 81 00 14 	stw     r4,20(r1)
    3f80:	48 00 00 01 	bl      3f80 <ApcInitNode+0x383c>
    3f84:	2c 83 00 00 	cmpwi   cr1,r3,0
    3f88:	40 86 20 c4 	bne-    cr1,604c <ApcInitNode+0x5908>
    3f8c:	38 00 00 5d 	li      r0,93
    3f90:	38 a0 00 00 	li      r5,0
    3f94:	38 61 07 b0 	addi    r3,r1,1968
    3f98:	90 01 07 b0 	stw     r0,1968(r1)
    3f9c:	90 a1 07 b4 	stw     r5,1972(r1)
    3fa0:	90 01 00 10 	stw     r0,16(r1)
    3fa4:	90 a1 00 14 	stw     r5,20(r1)
    3fa8:	48 00 00 01 	bl      3fa8 <ApcInitNode+0x3864>
    3fac:	2f 03 00 00 	cmpwi   cr6,r3,0
    3fb0:	40 9a 20 70 	bne-    cr6,6020 <ApcInitNode+0x58dc>
    3fb4:	38 c0 00 5f 	li      r6,95
    3fb8:	38 80 00 00 	li      r4,0
    3fbc:	38 61 07 c0 	addi    r3,r1,1984
    3fc0:	90 c1 07 c0 	stw     r6,1984(r1)
    3fc4:	90 81 07 c4 	stw     r4,1988(r1)
    3fc8:	90 c1 00 10 	stw     r6,16(r1)
    3fcc:	90 81 00 14 	stw     r4,20(r1)
    3fd0:	48 00 00 01 	bl      3fd0 <ApcInitNode+0x388c>
    3fd4:	2f 83 00 00 	cmpwi   cr7,r3,0
    3fd8:	40 9e 20 1c 	bne-    cr7,5ff4 <ApcInitNode+0x58b0>
    3fdc:	38 00 00 60 	li      r0,96
    3fe0:	39 60 00 00 	li      r11,0
    3fe4:	38 61 07 d0 	addi    r3,r1,2000
    3fe8:	90 01 07 d0 	stw     r0,2000(r1)
    3fec:	91 61 07 d4 	stw     r11,2004(r1)
    3ff0:	90 01 00 10 	stw     r0,16(r1)
    3ff4:	91 61 00 14 	stw     r11,20(r1)
    3ff8:	48 00 00 01 	bl      3ff8 <ApcInitNode+0x38b4>
    3ffc:	2c 03 00 00 	cmpwi   r3,0
    4000:	40 82 1f c8 	bne-    5fc8 <ApcInitNode+0x5884>
    4004:	39 00 00 61 	li      r8,97
    4008:	38 80 00 00 	li      r4,0
    400c:	38 61 07 e0 	addi    r3,r1,2016
    4010:	91 01 07 e0 	stw     r8,2016(r1)
    4014:	90 81 07 e4 	stw     r4,2020(r1)
    4018:	91 01 00 10 	stw     r8,16(r1)
    401c:	90 81 00 14 	stw     r4,20(r1)
    4020:	48 00 00 01 	bl      4020 <ApcInitNode+0x38dc>
    4024:	2c 83 00 00 	cmpwi   cr1,r3,0
    4028:	40 86 1f 74 	bne-    cr1,5f9c <ApcInitNode+0x5858>
    402c:	38 00 00 64 	li      r0,100
    4030:	39 40 00 00 	li      r10,0
    4034:	38 61 07 f0 	addi    r3,r1,2032
    4038:	90 01 07 f0 	stw     r0,2032(r1)
    403c:	91 41 07 f4 	stw     r10,2036(r1)
    4040:	90 01 00 10 	stw     r0,16(r1)
    4044:	91 41 00 14 	stw     r10,20(r1)
    4048:	48 00 00 01 	bl      4048 <ApcInitNode+0x3904>
    404c:	2f 03 00 00 	cmpwi   cr6,r3,0
    4050:	40 9a 1f 20 	bne-    cr6,5f70 <ApcInitNode+0x582c>
    4054:	38 a0 00 65 	li      r5,101
    4058:	38 80 00 00 	li      r4,0
    405c:	38 61 08 00 	addi    r3,r1,2048
    4060:	90 a1 08 00 	stw     r5,2048(r1)
    4064:	90 81 08 04 	stw     r4,2052(r1)
    4068:	90 a1 00 10 	stw     r5,16(r1)
    406c:	90 81 00 14 	stw     r4,20(r1)
    4070:	48 00 00 01 	bl      4070 <ApcInitNode+0x392c>
    4074:	2f 83 00 00 	cmpwi   cr7,r3,0
    4078:	40 9e 1e cc 	bne-    cr7,5f44 <ApcInitNode+0x5800>
    407c:	38 00 00 66 	li      r0,102
    4080:	38 c0 00 00 	li      r6,0
    4084:	38 61 08 10 	addi    r3,r1,2064
    4088:	90 01 08 10 	stw     r0,2064(r1)
    408c:	90 c1 08 14 	stw     r6,2068(r1)
    4090:	90 01 00 10 	stw     r0,16(r1)
    4094:	90 c1 00 14 	stw     r6,20(r1)
    4098:	48 00 00 01 	bl      4098 <ApcInitNode+0x3954>
    409c:	2c 03 00 00 	cmpwi   r3,0
    40a0:	40 82 1e 78 	bne-    5f18 <ApcInitNode+0x57d4>
    40a4:	39 60 00 67 	li      r11,103
    40a8:	38 80 00 00 	li      r4,0
    40ac:	38 61 08 20 	addi    r3,r1,2080
    40b0:	91 61 08 20 	stw     r11,2080(r1)
    40b4:	90 81 08 24 	stw     r4,2084(r1)
    40b8:	91 61 00 10 	stw     r11,16(r1)
    40bc:	90 81 00 14 	stw     r4,20(r1)
    40c0:	48 00 00 01 	bl      40c0 <ApcInitNode+0x397c>
    40c4:	2c 83 00 00 	cmpwi   cr1,r3,0
    40c8:	40 86 1e 24 	bne-    cr1,5eec <ApcInitNode+0x57a8>
    40cc:	38 00 00 68 	li      r0,104
    40d0:	39 00 00 00 	li      r8,0
    40d4:	38 61 08 30 	addi    r3,r1,2096
    40d8:	90 01 08 30 	stw     r0,2096(r1)
    40dc:	91 01 08 34 	stw     r8,2100(r1)
    40e0:	90 01 00 10 	stw     r0,16(r1)
    40e4:	91 01 00 14 	stw     r8,20(r1)
    40e8:	48 00 00 01 	bl      40e8 <ApcInitNode+0x39a4>
    40ec:	2f 03 00 00 	cmpwi   cr6,r3,0
    40f0:	40 9a 1d d0 	bne-    cr6,5ec0 <ApcInitNode+0x577c>
    40f4:	38 80 00 69 	li      r4,105
    40f8:	3b e0 00 00 	li      r31,0
    40fc:	38 61 08 40 	addi    r3,r1,2112
    4100:	90 81 08 40 	stw     r4,2112(r1)
    4104:	90 81 00 10 	stw     r4,16(r1)
    4108:	93 e1 00 14 	stw     r31,20(r1)
    410c:	93 e1 08 44 	stw     r31,2116(r1)
    4110:	48 00 00 01 	bl      4110 <ApcInitNode+0x39cc>
    4114:	2f 83 00 00 	cmpwi   cr7,r3,0
    4118:	40 9e 1d 7c 	bne-    cr7,5e94 <ApcInitNode+0x5750>
    411c:	38 00 00 6a 	li      r0,106
    4120:	38 61 08 50 	addi    r3,r1,2128
    4124:	90 01 08 50 	stw     r0,2128(r1)
    4128:	90 01 00 10 	stw     r0,16(r1)
    412c:	93 e1 00 14 	stw     r31,20(r1)
    4130:	93 e1 08 54 	stw     r31,2132(r1)
    4134:	48 00 00 01 	bl      4134 <ApcInitNode+0x39f0>
    4138:	2c 03 00 00 	cmpwi   r3,0
    413c:	40 82 1d 2c 	bne-    5e68 <ApcInitNode+0x5724>
    4140:	38 80 00 6b 	li      r4,107
    4144:	38 61 08 60 	addi    r3,r1,2144
    4148:	90 81 08 60 	stw     r4,2144(r1)
    414c:	90 81 00 10 	stw     r4,16(r1)
    4150:	93 e1 00 14 	stw     r31,20(r1)
    4154:	93 e1 08 64 	stw     r31,2148(r1)
    4158:	48 00 00 01 	bl      4158 <ApcInitNode+0x3a14>
    415c:	2c 83 00 00 	cmpwi   cr1,r3,0
    4160:	40 86 1c dc 	bne-    cr1,5e3c <ApcInitNode+0x56f8>
    4164:	38 00 01 05 	li      r0,261
    4168:	38 61 08 70 	addi    r3,r1,2160
    416c:	90 01 08 70 	stw     r0,2160(r1)
    4170:	90 01 00 10 	stw     r0,16(r1)
    4174:	93 e1 00 14 	stw     r31,20(r1)
    4178:	93 e1 08 74 	stw     r31,2164(r1)
    417c:	48 00 00 01 	bl      417c <ApcInitNode+0x3a38>
    4180:	2f 03 00 00 	cmpwi   cr6,r3,0
    4184:	40 9a 1c 8c 	bne-    cr6,5e10 <ApcInitNode+0x56cc>
    4188:	38 80 01 11 	li      r4,273
    418c:	38 61 08 80 	addi    r3,r1,2176
    4190:	90 81 08 80 	stw     r4,2176(r1)
    4194:	90 81 00 10 	stw     r4,16(r1)
    4198:	93 e1 00 14 	stw     r31,20(r1)
    419c:	93 e1 08 84 	stw     r31,2180(r1)
    41a0:	48 00 00 01 	bl      41a0 <ApcInitNode+0x3a5c>
    41a4:	2f 83 00 00 	cmpwi   cr7,r3,0
    41a8:	40 9e 1c 3c 	bne-    cr7,5de4 <ApcInitNode+0x56a0>
    41ac:	38 00 01 1d 	li      r0,285
    41b0:	38 61 08 90 	addi    r3,r1,2192
    41b4:	90 01 08 90 	stw     r0,2192(r1)
    41b8:	90 01 00 10 	stw     r0,16(r1)
    41bc:	93 e1 00 14 	stw     r31,20(r1)
    41c0:	93 e1 08 94 	stw     r31,2196(r1)
    41c4:	48 00 00 01 	bl      41c4 <ApcInitNode+0x3a80>
    41c8:	2c 03 00 00 	cmpwi   r3,0
    41cc:	40 82 1b ec 	bne-    5db8 <ApcInitNode+0x5674>
    41d0:	38 80 01 29 	li      r4,297
    41d4:	38 61 08 a0 	addi    r3,r1,2208
    41d8:	90 81 08 a0 	stw     r4,2208(r1)
    41dc:	90 81 00 10 	stw     r4,16(r1)
    41e0:	93 e1 00 14 	stw     r31,20(r1)
    41e4:	93 e1 08 a4 	stw     r31,2212(r1)
    41e8:	48 00 00 01 	bl      41e8 <ApcInitNode+0x3aa4>
    41ec:	2c 83 00 00 	cmpwi   cr1,r3,0
    41f0:	40 86 2b c8 	bne-    cr1,6db8 <ApcInitNode+0x6674>
    41f4:	38 00 01 35 	li      r0,309
    41f8:	38 61 08 b0 	addi    r3,r1,2224
    41fc:	90 01 08 b0 	stw     r0,2224(r1)
    4200:	90 01 00 10 	stw     r0,16(r1)
    4204:	93 e1 00 14 	stw     r31,20(r1)
    4208:	93 e1 08 b4 	stw     r31,2228(r1)
    420c:	48 00 00 01 	bl      420c <ApcInitNode+0x3ac8>
    4210:	2f 03 00 00 	cmpwi   cr6,r3,0
    4214:	40 9a 2b 78 	bne-    cr6,6d8c <ApcInitNode+0x6648>
    4218:	38 80 01 41 	li      r4,321
    421c:	38 61 08 c0 	addi    r3,r1,2240
    4220:	90 81 08 c0 	stw     r4,2240(r1)
    4224:	90 81 00 10 	stw     r4,16(r1)
    4228:	93 e1 00 14 	stw     r31,20(r1)
    422c:	93 e1 08 c4 	stw     r31,2244(r1)
    4230:	48 00 00 01 	bl      4230 <ApcInitNode+0x3aec>
    4234:	2f 83 00 00 	cmpwi   cr7,r3,0
    4238:	40 9e 2b 28 	bne-    cr7,6d60 <ApcInitNode+0x661c>
    423c:	38 00 00 6c 	li      r0,108
    4240:	38 61 08 d0 	addi    r3,r1,2256
    4244:	90 01 08 d0 	stw     r0,2256(r1)
    4248:	93 e1 08 d4 	stw     r31,2260(r1)
    424c:	90 01 00 10 	stw     r0,16(r1)
    4250:	93 e1 00 14 	stw     r31,20(r1)
    4254:	48 00 00 01 	bl      4254 <ApcInitNode+0x3b10>
    4258:	2c 03 00 00 	cmpwi   r3,0
    425c:	40 82 2a d8 	bne-    6d34 <ApcInitNode+0x65f0>
    4260:	38 00 01 47 	li      r0,327
    4264:	39 20 00 03 	li      r9,3
    4268:	38 61 08 e0 	addi    r3,r1,2272
    426c:	90 01 08 e0 	stw     r0,2272(r1)
    4270:	91 21 08 e4 	stw     r9,2276(r1)
    4274:	4b ff cb b0 	b       e24 <ApcInitNode+0x6e0>
    4278:	38 00 00 01 	li      r0,1
    427c:	39 40 00 00 	li      r10,0
    4280:	38 61 02 90 	addi    r3,r1,656
    4284:	90 01 02 90 	stw     r0,656(r1)
    4288:	91 41 02 94 	stw     r10,660(r1)
    428c:	90 01 00 10 	stw     r0,16(r1)
    4290:	91 41 00 14 	stw     r10,20(r1)
    4294:	48 00 00 01 	bl      4294 <ApcInitNode+0x3b50>
    4298:	2f 03 00 00 	cmpwi   cr6,r3,0
    429c:	40 9a 57 1c 	bne-    cr6,99b8 <ApcInitNode+0x9274>
    42a0:	38 e0 00 05 	li      r7,5
    42a4:	38 80 00 00 	li      r4,0
    42a8:	38 61 02 a0 	addi    r3,r1,672
    42ac:	90 e1 02 a0 	stw     r7,672(r1)
    42b0:	90 81 02 a4 	stw     r4,676(r1)
    42b4:	90 e1 00 10 	stw     r7,16(r1)
    42b8:	90 81 00 14 	stw     r4,20(r1)
    42bc:	48 00 00 01 	bl      42bc <ApcInitNode+0x3b78>
    42c0:	2f 83 00 00 	cmpwi   cr7,r3,0
    42c4:	40 9e 56 c8 	bne-    cr7,998c <ApcInitNode+0x9248>
    42c8:	38 00 00 09 	li      r0,9
    42cc:	38 c0 00 00 	li      r6,0
    42d0:	38 61 02 b0 	addi    r3,r1,688
    42d4:	90 01 02 b0 	stw     r0,688(r1)
    42d8:	90 c1 02 b4 	stw     r6,692(r1)
    42dc:	90 01 00 10 	stw     r0,16(r1)
    42e0:	90 c1 00 14 	stw     r6,20(r1)
    42e4:	48 00 00 01 	bl      42e4 <ApcInitNode+0x3ba0>
    42e8:	2c 03 00 00 	cmpwi   r3,0
    42ec:	40 82 56 74 	bne-    9960 <ApcInitNode+0x921c>
    42f0:	39 60 00 0d 	li      r11,13
    42f4:	38 80 00 00 	li      r4,0
    42f8:	38 61 02 c0 	addi    r3,r1,704
    42fc:	91 61 02 c0 	stw     r11,704(r1)
    4300:	90 81 02 c4 	stw     r4,708(r1)
    4304:	91 61 00 10 	stw     r11,16(r1)
    4308:	90 81 00 14 	stw     r4,20(r1)
    430c:	48 00 00 01 	bl      430c <ApcInitNode+0x3bc8>
    4310:	2c 83 00 00 	cmpwi   cr1,r3,0
    4314:	40 86 56 20 	bne-    cr1,9934 <ApcInitNode+0x91f0>
    4318:	38 00 00 41 	li      r0,65
    431c:	3b e0 00 00 	li      r31,0
    4320:	38 61 02 d0 	addi    r3,r1,720
    4324:	90 01 02 d0 	stw     r0,720(r1)
    4328:	93 e1 02 d4 	stw     r31,724(r1)
    432c:	90 01 00 10 	stw     r0,16(r1)
    4330:	93 e1 00 14 	stw     r31,20(r1)
    4334:	48 00 00 01 	bl      4334 <ApcInitNode+0x3bf0>
    4338:	2f 03 00 00 	cmpwi   cr6,r3,0
    433c:	40 9a 55 cc 	bne-    cr6,9908 <ApcInitNode+0x91c4>
    4340:	39 80 00 2c 	li      r12,44
    4344:	38 80 00 00 	li      r4,0
    4348:	38 61 02 e0 	addi    r3,r1,736
    434c:	91 81 02 e0 	stw     r12,736(r1)
    4350:	90 81 02 e4 	stw     r4,740(r1)
    4354:	91 81 00 10 	stw     r12,16(r1)
    4358:	90 81 00 14 	stw     r4,20(r1)
    435c:	48 00 00 01 	bl      435c <ApcInitNode+0x3c18>
    4360:	2f 83 00 00 	cmpwi   cr7,r3,0
    4364:	40 9e 55 78 	bne-    cr7,98dc <ApcInitNode+0x9198>
    4368:	38 00 00 2d 	li      r0,45
    436c:	39 00 00 00 	li      r8,0
    4370:	38 61 02 f0 	addi    r3,r1,752
    4374:	90 01 02 f0 	stw     r0,752(r1)
    4378:	91 01 02 f4 	stw     r8,756(r1)
    437c:	90 01 00 10 	stw     r0,16(r1)
    4380:	91 01 00 14 	stw     r8,20(r1)
    4384:	48 00 00 01 	bl      4384 <ApcInitNode+0x3c40>
    4388:	2c 03 00 00 	cmpwi   r3,0
    438c:	40 82 55 24 	bne-    98b0 <ApcInitNode+0x916c>
    4390:	3b e0 00 2e 	li      r31,46
    4394:	38 80 00 00 	li      r4,0
    4398:	38 61 03 00 	addi    r3,r1,768
    439c:	93 e1 03 00 	stw     r31,768(r1)
    43a0:	90 81 03 04 	stw     r4,772(r1)
    43a4:	93 e1 00 10 	stw     r31,16(r1)
    43a8:	90 81 00 14 	stw     r4,20(r1)
    43ac:	48 00 00 01 	bl      43ac <ApcInitNode+0x3c68>
    43b0:	2c 83 00 00 	cmpwi   cr1,r3,0
    43b4:	40 86 54 d0 	bne-    cr1,9884 <ApcInitNode+0x9140>
    43b8:	38 00 00 31 	li      r0,49
    43bc:	39 40 00 00 	li      r10,0
    43c0:	38 61 03 10 	addi    r3,r1,784
    43c4:	90 01 03 10 	stw     r0,784(r1)
    43c8:	91 41 03 14 	stw     r10,788(r1)
    43cc:	90 01 00 10 	stw     r0,16(r1)
    43d0:	91 41 00 14 	stw     r10,20(r1)
    43d4:	48 00 00 01 	bl      43d4 <ApcInitNode+0x3c90>
    43d8:	2f 03 00 00 	cmpwi   cr6,r3,0
    43dc:	40 9a 54 7c 	bne-    cr6,9858 <ApcInitNode+0x9114>
    43e0:	38 e0 00 32 	li      r7,50
    43e4:	38 80 00 00 	li      r4,0
    43e8:	38 61 03 20 	addi    r3,r1,800
    43ec:	90 e1 03 20 	stw     r7,800(r1)
    43f0:	90 81 03 24 	stw     r4,804(r1)
    43f4:	90 e1 00 10 	stw     r7,16(r1)
    43f8:	90 81 00 14 	stw     r4,20(r1)
    43fc:	48 00 00 01 	bl      43fc <ApcInitNode+0x3cb8>
    4400:	2f 83 00 00 	cmpwi   cr7,r3,0
    4404:	40 9e 54 28 	bne-    cr7,982c <ApcInitNode+0x90e8>
    4408:	38 00 00 33 	li      r0,51
    440c:	38 c0 00 00 	li      r6,0
    4410:	38 61 03 30 	addi    r3,r1,816
    4414:	90 01 03 30 	stw     r0,816(r1)
    4418:	90 c1 03 34 	stw     r6,820(r1)
    441c:	90 01 00 10 	stw     r0,16(r1)
    4420:	90 c1 00 14 	stw     r6,20(r1)
    4424:	48 00 00 01 	bl      4424 <ApcInitNode+0x3ce0>
    4428:	2c 03 00 00 	cmpwi   r3,0
    442c:	40 82 53 d4 	bne-    9800 <ApcInitNode+0x90bc>
    4430:	39 60 00 34 	li      r11,52
    4434:	38 80 00 00 	li      r4,0
    4438:	38 61 03 40 	addi    r3,r1,832
    443c:	91 61 03 40 	stw     r11,832(r1)
    4440:	90 81 03 44 	stw     r4,836(r1)
    4444:	91 61 00 10 	stw     r11,16(r1)
    4448:	90 81 00 14 	stw     r4,20(r1)
    444c:	48 00 00 01 	bl      444c <ApcInitNode+0x3d08>
    4450:	2c 83 00 00 	cmpwi   cr1,r3,0
    4454:	40 86 53 80 	bne-    cr1,97d4 <ApcInitNode+0x9090>
    4458:	38 00 00 35 	li      r0,53
    445c:	38 a0 00 00 	li      r5,0
    4460:	38 61 03 50 	addi    r3,r1,848
    4464:	90 01 03 50 	stw     r0,848(r1)
    4468:	90 a1 03 54 	stw     r5,852(r1)
    446c:	90 01 00 10 	stw     r0,16(r1)
    4470:	90 a1 00 14 	stw     r5,20(r1)
    4474:	48 00 00 01 	bl      4474 <ApcInitNode+0x3d30>
    4478:	2f 03 00 00 	cmpwi   cr6,r3,0
    447c:	40 9a 53 2c 	bne-    cr6,97a8 <ApcInitNode+0x9064>
    4480:	39 80 00 36 	li      r12,54
    4484:	38 80 00 00 	li      r4,0
    4488:	38 61 03 60 	addi    r3,r1,864
    448c:	91 81 03 60 	stw     r12,864(r1)
    4490:	90 81 03 64 	stw     r4,868(r1)
    4494:	91 81 00 10 	stw     r12,16(r1)
    4498:	90 81 00 14 	stw     r4,20(r1)
    449c:	48 00 00 01 	bl      449c <ApcInitNode+0x3d58>
    44a0:	2f 83 00 00 	cmpwi   cr7,r3,0
    44a4:	40 9e 52 d8 	bne-    cr7,977c <ApcInitNode+0x9038>
    44a8:	38 00 00 37 	li      r0,55
    44ac:	38 e0 00 00 	li      r7,0
    44b0:	38 61 03 70 	addi    r3,r1,880
    44b4:	90 01 03 70 	stw     r0,880(r1)
    44b8:	90 e1 03 74 	stw     r7,884(r1)
    44bc:	90 01 00 10 	stw     r0,16(r1)
    44c0:	90 e1 00 14 	stw     r7,20(r1)
    44c4:	48 00 00 01 	bl      44c4 <ApcInitNode+0x3d80>
    44c8:	2c 03 00 00 	cmpwi   r3,0
    44cc:	40 82 52 84 	bne-    9750 <ApcInitNode+0x900c>
    44d0:	3b e0 00 38 	li      r31,56
    44d4:	38 80 00 00 	li      r4,0
    44d8:	38 61 03 80 	addi    r3,r1,896
    44dc:	93 e1 03 80 	stw     r31,896(r1)
    44e0:	90 81 03 84 	stw     r4,900(r1)
    44e4:	93 e1 00 10 	stw     r31,16(r1)
    44e8:	90 81 00 14 	stw     r4,20(r1)
    44ec:	48 00 00 01 	bl      44ec <ApcInitNode+0x3da8>
    44f0:	2c 83 00 00 	cmpwi   cr1,r3,0
    44f4:	40 86 52 30 	bne-    cr1,9724 <ApcInitNode+0x8fe0>
    44f8:	38 00 00 39 	li      r0,57
    44fc:	39 60 00 00 	li      r11,0
    4500:	38 61 03 90 	addi    r3,r1,912
    4504:	90 01 03 90 	stw     r0,912(r1)
    4508:	91 61 03 94 	stw     r11,916(r1)
    450c:	90 01 00 10 	stw     r0,16(r1)
    4510:	91 61 00 14 	stw     r11,20(r1)
    4514:	48 00 00 01 	bl      4514 <ApcInitNode+0x3dd0>
    4518:	2f 03 00 00 	cmpwi   cr6,r3,0
    451c:	40 9a 51 dc 	bne-    cr6,96f8 <ApcInitNode+0x8fb4>
    4520:	38 a0 00 3a 	li      r5,58
    4524:	38 80 00 00 	li      r4,0
    4528:	38 61 03 a0 	addi    r3,r1,928
    452c:	90 a1 03 a0 	stw     r5,928(r1)
    4530:	90 81 03 a4 	stw     r4,932(r1)
    4534:	90 a1 00 10 	stw     r5,16(r1)
    4538:	90 81 00 14 	stw     r4,20(r1)
    453c:	48 00 00 01 	bl      453c <ApcInitNode+0x3df8>
    4540:	2f 83 00 00 	cmpwi   cr7,r3,0
    4544:	40 9e 51 88 	bne-    cr7,96cc <ApcInitNode+0x8f88>
    4548:	38 00 00 3b 	li      r0,59
    454c:	39 80 00 00 	li      r12,0
    4550:	38 61 03 b0 	addi    r3,r1,944
    4554:	90 01 03 b0 	stw     r0,944(r1)
    4558:	91 81 03 b4 	stw     r12,948(r1)
    455c:	90 01 00 10 	stw     r0,16(r1)
    4560:	91 81 00 14 	stw     r12,20(r1)
    4564:	48 00 00 01 	bl      4564 <ApcInitNode+0x3e20>
    4568:	2c 03 00 00 	cmpwi   r3,0
    456c:	40 82 51 34 	bne-    96a0 <ApcInitNode+0x8f5c>
    4570:	38 e0 00 3c 	li      r7,60
    4574:	38 80 00 00 	li      r4,0
    4578:	38 61 03 c0 	addi    r3,r1,960
    457c:	90 e1 03 c0 	stw     r7,960(r1)
    4580:	90 81 03 c4 	stw     r4,964(r1)
    4584:	90 e1 00 10 	stw     r7,16(r1)
    4588:	90 81 00 14 	stw     r4,20(r1)
    458c:	48 00 00 01 	bl      458c <ApcInitNode+0x3e48>
    4590:	2c 83 00 00 	cmpwi   cr1,r3,0
    4594:	40 86 50 e0 	bne-    cr1,9674 <ApcInitNode+0x8f30>
    4598:	38 00 00 3f 	li      r0,63
    459c:	3b e0 00 00 	li      r31,0
    45a0:	38 61 03 d0 	addi    r3,r1,976
    45a4:	90 01 03 d0 	stw     r0,976(r1)
    45a8:	93 e1 03 d4 	stw     r31,980(r1)
    45ac:	90 01 00 10 	stw     r0,16(r1)
    45b0:	93 e1 00 14 	stw     r31,20(r1)
    45b4:	48 00 00 01 	bl      45b4 <ApcInitNode+0x3e70>
    45b8:	2f 03 00 00 	cmpwi   cr6,r3,0
    45bc:	40 9a 50 8c 	bne-    cr6,9648 <ApcInitNode+0x8f04>
    45c0:	39 60 00 40 	li      r11,64
    45c4:	38 80 00 00 	li      r4,0
    45c8:	38 61 03 e0 	addi    r3,r1,992
    45cc:	91 61 03 e0 	stw     r11,992(r1)
    45d0:	90 81 03 e4 	stw     r4,996(r1)
    45d4:	91 61 00 10 	stw     r11,16(r1)
    45d8:	90 81 00 14 	stw     r4,20(r1)
    45dc:	48 00 00 01 	bl      45dc <ApcInitNode+0x3e98>
    45e0:	2f 83 00 00 	cmpwi   cr7,r3,0
    45e4:	40 9e 50 38 	bne-    cr7,961c <ApcInitNode+0x8ed8>
    45e8:	38 00 00 42 	li      r0,66
    45ec:	38 a0 00 00 	li      r5,0
    45f0:	38 61 03 f0 	addi    r3,r1,1008
    45f4:	90 01 03 f0 	stw     r0,1008(r1)
    45f8:	90 a1 03 f4 	stw     r5,1012(r1)
    45fc:	90 01 00 10 	stw     r0,16(r1)
    4600:	90 a1 00 14 	stw     r5,20(r1)
    4604:	48 00 00 01 	bl      4604 <ApcInitNode+0x3ec0>
    4608:	2c 03 00 00 	cmpwi   r3,0
    460c:	40 82 4f e4 	bne-    95f0 <ApcInitNode+0x8eac>
    4610:	39 80 00 43 	li      r12,67
    4614:	38 80 00 00 	li      r4,0
    4618:	38 61 04 00 	addi    r3,r1,1024
    461c:	91 81 04 00 	stw     r12,1024(r1)
    4620:	90 81 04 04 	stw     r4,1028(r1)
    4624:	91 81 00 10 	stw     r12,16(r1)
    4628:	90 81 00 14 	stw     r4,20(r1)
    462c:	48 00 00 01 	bl      462c <ApcInitNode+0x3ee8>
    4630:	2c 83 00 00 	cmpwi   cr1,r3,0
    4634:	40 86 4f 90 	bne-    cr1,95c4 <ApcInitNode+0x8e80>
    4638:	38 00 00 44 	li      r0,68
    463c:	38 e0 00 00 	li      r7,0
    4640:	38 61 04 10 	addi    r3,r1,1040
    4644:	90 01 04 10 	stw     r0,1040(r1)
    4648:	90 e1 04 14 	stw     r7,1044(r1)
    464c:	90 01 00 10 	stw     r0,16(r1)
    4650:	90 e1 00 14 	stw     r7,20(r1)
    4654:	48 00 00 01 	bl      4654 <ApcInitNode+0x3f10>
    4658:	2f 03 00 00 	cmpwi   cr6,r3,0
    465c:	40 9a 4f 3c 	bne-    cr6,9598 <ApcInitNode+0x8e54>
    4660:	3b e0 00 47 	li      r31,71
    4664:	38 80 00 00 	li      r4,0
    4668:	38 61 04 20 	addi    r3,r1,1056
    466c:	93 e1 04 20 	stw     r31,1056(r1)
    4670:	90 81 04 24 	stw     r4,1060(r1)
    4674:	93 e1 00 10 	stw     r31,16(r1)
    4678:	90 81 00 14 	stw     r4,20(r1)
    467c:	48 00 00 01 	bl      467c <ApcInitNode+0x3f38>
    4680:	2f 83 00 00 	cmpwi   cr7,r3,0
    4684:	40 9e 4e e8 	bne-    cr7,956c <ApcInitNode+0x8e28>
    4688:	38 00 00 48 	li      r0,72
    468c:	39 60 00 00 	li      r11,0
    4690:	38 61 04 30 	addi    r3,r1,1072
    4694:	90 01 04 30 	stw     r0,1072(r1)
    4698:	91 61 04 34 	stw     r11,1076(r1)
    469c:	90 01 00 10 	stw     r0,16(r1)
    46a0:	91 61 00 14 	stw     r11,20(r1)
    46a4:	48 00 00 01 	bl      46a4 <ApcInitNode+0x3f60>
    46a8:	2c 03 00 00 	cmpwi   r3,0
    46ac:	40 82 4e 94 	bne-    9540 <ApcInitNode+0x8dfc>
    46b0:	38 a0 00 49 	li      r5,73
    46b4:	38 80 00 00 	li      r4,0
    46b8:	38 61 04 40 	addi    r3,r1,1088
    46bc:	90 a1 04 40 	stw     r5,1088(r1)
    46c0:	90 81 04 44 	stw     r4,1092(r1)
    46c4:	90 a1 00 10 	stw     r5,16(r1)
    46c8:	90 81 00 14 	stw     r4,20(r1)
    46cc:	48 00 00 01 	bl      46cc <ApcInitNode+0x3f88>
    46d0:	2c 83 00 00 	cmpwi   cr1,r3,0
    46d4:	40 86 4e 40 	bne-    cr1,9514 <ApcInitNode+0x8dd0>
    46d8:	38 00 00 4a 	li      r0,74
    46dc:	39 80 00 00 	li      r12,0
    46e0:	38 61 04 50 	addi    r3,r1,1104
    46e4:	90 01 04 50 	stw     r0,1104(r1)
    46e8:	91 81 04 54 	stw     r12,1108(r1)
    46ec:	90 01 00 10 	stw     r0,16(r1)
    46f0:	91 81 00 14 	stw     r12,20(r1)
    46f4:	48 00 00 01 	bl      46f4 <ApcInitNode+0x3fb0>
    46f8:	2f 03 00 00 	cmpwi   cr6,r3,0
    46fc:	40 9a 4d ec 	bne-    cr6,94e8 <ApcInitNode+0x8da4>
    4700:	38 80 00 4b 	li      r4,75
    4704:	3b e0 00 00 	li      r31,0
    4708:	38 61 04 60 	addi    r3,r1,1120
    470c:	90 81 04 60 	stw     r4,1120(r1)
    4710:	90 81 00 10 	stw     r4,16(r1)
    4714:	93 e1 00 14 	stw     r31,20(r1)
    4718:	93 e1 04 64 	stw     r31,1124(r1)
    471c:	48 00 00 01 	bl      471c <ApcInitNode+0x3fd8>
    4720:	2f 83 00 00 	cmpwi   cr7,r3,0
    4724:	40 9e 4d 98 	bne-    cr7,94bc <ApcInitNode+0x8d78>
    4728:	38 00 00 4c 	li      r0,76
    472c:	38 61 04 70 	addi    r3,r1,1136
    4730:	90 01 04 70 	stw     r0,1136(r1)
    4734:	90 01 00 10 	stw     r0,16(r1)
    4738:	93 e1 00 14 	stw     r31,20(r1)
    473c:	93 e1 04 74 	stw     r31,1140(r1)
    4740:	48 00 00 01 	bl      4740 <ApcInitNode+0x3ffc>
    4744:	2c 03 00 00 	cmpwi   r3,0
    4748:	40 82 4d 48 	bne-    9490 <ApcInitNode+0x8d4c>
    474c:	38 80 00 4d 	li      r4,77
    4750:	38 61 04 80 	addi    r3,r1,1152
    4754:	90 81 04 80 	stw     r4,1152(r1)
    4758:	90 81 00 10 	stw     r4,16(r1)
    475c:	93 e1 00 14 	stw     r31,20(r1)
    4760:	93 e1 04 84 	stw     r31,1156(r1)
    4764:	48 00 00 01 	bl      4764 <ApcInitNode+0x4020>
    4768:	2c 83 00 00 	cmpwi   cr1,r3,0
    476c:	40 86 4c f8 	bne-    cr1,9464 <ApcInitNode+0x8d20>
    4770:	38 00 00 4e 	li      r0,78
    4774:	38 61 04 90 	addi    r3,r1,1168
    4778:	90 01 04 90 	stw     r0,1168(r1)
    477c:	90 01 00 10 	stw     r0,16(r1)
    4780:	93 e1 00 14 	stw     r31,20(r1)
    4784:	93 e1 04 94 	stw     r31,1172(r1)
    4788:	48 00 00 01 	bl      4788 <ApcInitNode+0x4044>
    478c:	2f 03 00 00 	cmpwi   cr6,r3,0
    4790:	40 9a 28 e8 	bne-    cr6,7078 <ApcInitNode+0x6934>
    4794:	38 80 01 05 	li      r4,261
    4798:	38 61 04 a0 	addi    r3,r1,1184
    479c:	90 81 04 a0 	stw     r4,1184(r1)
    47a0:	90 81 00 10 	stw     r4,16(r1)
    47a4:	93 e1 00 14 	stw     r31,20(r1)
    47a8:	93 e1 04 a4 	stw     r31,1188(r1)
    47ac:	48 00 00 01 	bl      47ac <ApcInitNode+0x4068>
    47b0:	2f 83 00 00 	cmpwi   cr7,r3,0
    47b4:	40 9e 28 98 	bne-    cr7,704c <ApcInitNode+0x6908>
    47b8:	38 00 01 11 	li      r0,273
    47bc:	38 61 04 b0 	addi    r3,r1,1200
    47c0:	90 01 04 b0 	stw     r0,1200(r1)
    47c4:	90 01 00 10 	stw     r0,16(r1)
    47c8:	93 e1 00 14 	stw     r31,20(r1)
    47cc:	93 e1 04 b4 	stw     r31,1204(r1)
    47d0:	48 00 00 01 	bl      47d0 <ApcInitNode+0x408c>
    47d4:	2c 03 00 00 	cmpwi   r3,0
    47d8:	40 82 28 48 	bne-    7020 <ApcInitNode+0x68dc>
    47dc:	38 80 01 1d 	li      r4,285
    47e0:	38 61 04 c0 	addi    r3,r1,1216
    47e4:	90 81 04 c0 	stw     r4,1216(r1)
    47e8:	90 81 00 10 	stw     r4,16(r1)
    47ec:	93 e1 00 14 	stw     r31,20(r1)
    47f0:	93 e1 04 c4 	stw     r31,1220(r1)
    47f4:	48 00 00 01 	bl      47f4 <ApcInitNode+0x40b0>
    47f8:	2c 83 00 00 	cmpwi   cr1,r3,0
    47fc:	40 86 27 f8 	bne-    cr1,6ff4 <ApcInitNode+0x68b0>
    4800:	38 00 01 29 	li      r0,297
    4804:	38 61 04 d0 	addi    r3,r1,1232
    4808:	90 01 04 d0 	stw     r0,1232(r1)
    480c:	90 01 00 10 	stw     r0,16(r1)
    4810:	93 e1 00 14 	stw     r31,20(r1)
    4814:	93 e1 04 d4 	stw     r31,1236(r1)
    4818:	48 00 00 01 	bl      4818 <ApcInitNode+0x40d4>
    481c:	2f 03 00 00 	cmpwi   cr6,r3,0
    4820:	40 9a 27 a8 	bne-    cr6,6fc8 <ApcInitNode+0x6884>
    4824:	38 80 01 35 	li      r4,309
    4828:	38 61 04 e0 	addi    r3,r1,1248
    482c:	90 81 04 e0 	stw     r4,1248(r1)
    4830:	90 81 00 10 	stw     r4,16(r1)
    4834:	93 e1 00 14 	stw     r31,20(r1)
    4838:	93 e1 04 e4 	stw     r31,1252(r1)
    483c:	48 00 00 01 	bl      483c <ApcInitNode+0x40f8>
    4840:	2f 83 00 00 	cmpwi   cr7,r3,0
    4844:	40 9e 27 58 	bne-    cr7,6f9c <ApcInitNode+0x6858>
    4848:	38 00 01 41 	li      r0,321
    484c:	38 61 04 f0 	addi    r3,r1,1264
    4850:	90 01 04 f0 	stw     r0,1264(r1)
    4854:	93 e1 04 f4 	stw     r31,1268(r1)
    4858:	90 01 00 10 	stw     r0,16(r1)
    485c:	93 e1 00 14 	stw     r31,20(r1)
    4860:	48 00 00 01 	bl      4860 <ApcInitNode+0x411c>
    4864:	2c 03 00 00 	cmpwi   r3,0
    4868:	40 82 27 08 	bne-    6f70 <ApcInitNode+0x682c>
    486c:	38 00 01 47 	li      r0,327
    4870:	39 20 00 03 	li      r9,3
    4874:	38 61 05 00 	addi    r3,r1,1280
    4878:	90 01 05 00 	stw     r0,1280(r1)
    487c:	91 21 05 04 	stw     r9,1284(r1)
    4880:	4b ff c5 a4 	b       e24 <ApcInitNode+0x6e0>
    4884:	38 00 00 03 	li      r0,3
    4888:	39 60 00 00 	li      r11,0
    488c:	38 61 15 d0 	addi    r3,r1,5584
    4890:	90 01 15 d0 	stw     r0,5584(r1)
    4894:	91 61 15 d4 	stw     r11,5588(r1)
    4898:	90 01 00 10 	stw     r0,16(r1)
    489c:	91 61 00 14 	stw     r11,20(r1)
    48a0:	48 00 00 01 	bl      48a0 <ApcInitNode+0x415c>
    48a4:	2c 03 00 00 	cmpwi   r3,0
    48a8:	40 82 23 54 	bne-    6bfc <ApcInitNode+0x64b8>
    48ac:	38 e0 00 07 	li      r7,7
    48b0:	38 80 00 00 	li      r4,0
    48b4:	38 61 15 e0 	addi    r3,r1,5600
    48b8:	90 e1 15 e0 	stw     r7,5600(r1)
    48bc:	90 81 15 e4 	stw     r4,5604(r1)
    48c0:	90 e1 00 10 	stw     r7,16(r1)
    48c4:	90 81 00 14 	stw     r4,20(r1)
    48c8:	48 00 00 01 	bl      48c8 <ApcInitNode+0x4184>
    48cc:	2c 83 00 00 	cmpwi   cr1,r3,0
    48d0:	40 86 23 00 	bne-    cr1,6bd0 <ApcInitNode+0x648c>
    48d4:	38 00 00 0b 	li      r0,11
    48d8:	39 80 00 00 	li      r12,0
    48dc:	38 61 15 f0 	addi    r3,r1,5616
    48e0:	90 01 15 f0 	stw     r0,5616(r1)
    48e4:	91 81 15 f4 	stw     r12,5620(r1)
    48e8:	90 01 00 10 	stw     r0,16(r1)
    48ec:	91 81 00 14 	stw     r12,20(r1)
    48f0:	48 00 00 01 	bl      48f0 <ApcInitNode+0x41ac>
    48f4:	2f 03 00 00 	cmpwi   cr6,r3,0
    48f8:	40 9a 22 ac 	bne-    cr6,6ba4 <ApcInitNode+0x6460>
    48fc:	39 00 00 0f 	li      r8,15
    4900:	38 80 00 00 	li      r4,0
    4904:	38 61 16 00 	addi    r3,r1,5632
    4908:	91 01 16 00 	stw     r8,5632(r1)
    490c:	90 81 16 04 	stw     r4,5636(r1)
    4910:	91 01 00 10 	stw     r8,16(r1)
    4914:	90 81 00 14 	stw     r4,20(r1)
    4918:	48 00 00 01 	bl      4918 <ApcInitNode+0x41d4>
    491c:	2f 83 00 00 	cmpwi   cr7,r3,0
    4920:	40 9e 22 58 	bne-    cr7,6b78 <ApcInitNode+0x6434>
    4924:	38 00 01 05 	li      r0,261
    4928:	38 c0 00 00 	li      r6,0
    492c:	38 61 16 10 	addi    r3,r1,5648
    4930:	90 01 16 10 	stw     r0,5648(r1)
    4934:	90 c1 16 14 	stw     r6,5652(r1)
    4938:	90 01 00 10 	stw     r0,16(r1)
    493c:	90 c1 00 14 	stw     r6,20(r1)
    4940:	48 00 00 01 	bl      4940 <ApcInitNode+0x41fc>
    4944:	2c 03 00 00 	cmpwi   r3,0
    4948:	40 82 22 04 	bne-    6b4c <ApcInitNode+0x6408>
    494c:	39 40 01 11 	li      r10,273
    4950:	38 80 00 00 	li      r4,0
    4954:	38 61 16 20 	addi    r3,r1,5664
    4958:	91 41 16 20 	stw     r10,5664(r1)
    495c:	90 81 16 24 	stw     r4,5668(r1)
    4960:	91 41 00 10 	stw     r10,16(r1)
    4964:	90 81 00 14 	stw     r4,20(r1)
    4968:	48 00 00 01 	bl      4968 <ApcInitNode+0x4224>
    496c:	2c 83 00 00 	cmpwi   cr1,r3,0
    4970:	40 86 21 b0 	bne-    cr1,6b20 <ApcInitNode+0x63dc>
    4974:	38 00 01 1d 	li      r0,285
    4978:	38 e0 00 00 	li      r7,0
    497c:	38 61 16 30 	addi    r3,r1,5680
    4980:	90 01 16 30 	stw     r0,5680(r1)
    4984:	90 e1 16 34 	stw     r7,5684(r1)
    4988:	90 01 00 10 	stw     r0,16(r1)
    498c:	90 e1 00 14 	stw     r7,20(r1)
    4990:	48 00 00 01 	bl      4990 <ApcInitNode+0x424c>
    4994:	2f 03 00 00 	cmpwi   cr6,r3,0
    4998:	40 9a 21 5c 	bne-    cr6,6af4 <ApcInitNode+0x63b0>
    499c:	38 a0 01 29 	li      r5,297
    49a0:	38 80 00 00 	li      r4,0
    49a4:	38 61 16 40 	addi    r3,r1,5696
    49a8:	90 a1 16 40 	stw     r5,5696(r1)
    49ac:	90 81 16 44 	stw     r4,5700(r1)
    49b0:	90 a1 00 10 	stw     r5,16(r1)
    49b4:	90 81 00 14 	stw     r4,20(r1)
    49b8:	48 00 00 01 	bl      49b8 <ApcInitNode+0x4274>
    49bc:	2f 83 00 00 	cmpwi   cr7,r3,0
    49c0:	40 9e 21 08 	bne-    cr7,6ac8 <ApcInitNode+0x6384>
    49c4:	38 00 01 35 	li      r0,309
    49c8:	39 60 00 00 	li      r11,0
    49cc:	38 61 16 50 	addi    r3,r1,5712
    49d0:	90 01 16 50 	stw     r0,5712(r1)
    49d4:	91 61 16 54 	stw     r11,5716(r1)
    49d8:	90 01 00 10 	stw     r0,16(r1)
    49dc:	91 61 00 14 	stw     r11,20(r1)
    49e0:	48 00 00 01 	bl      49e0 <ApcInitNode+0x429c>
    49e4:	2c 03 00 00 	cmpwi   r3,0
    49e8:	40 82 20 b4 	bne-    6a9c <ApcInitNode+0x6358>
    49ec:	38 c0 01 41 	li      r6,321
    49f0:	38 80 00 00 	li      r4,0
    49f4:	38 61 16 60 	addi    r3,r1,5728
    49f8:	90 c1 16 60 	stw     r6,5728(r1)
    49fc:	90 81 16 64 	stw     r4,5732(r1)
    4a00:	90 c1 00 10 	stw     r6,16(r1)
    4a04:	90 81 00 14 	stw     r4,20(r1)
    4a08:	48 00 00 01 	bl      4a08 <ApcInitNode+0x42c4>
    4a0c:	2c 83 00 00 	cmpwi   cr1,r3,0
    4a10:	40 86 20 60 	bne-    cr1,6a70 <ApcInitNode+0x632c>
    4a14:	38 00 00 ca 	li      r0,202
    4a18:	39 80 00 00 	li      r12,0
    4a1c:	38 61 16 70 	addi    r3,r1,5744
    4a20:	90 01 16 70 	stw     r0,5744(r1)
    4a24:	91 81 16 74 	stw     r12,5748(r1)
    4a28:	90 01 00 10 	stw     r0,16(r1)
    4a2c:	91 81 00 14 	stw     r12,20(r1)
    4a30:	48 00 00 01 	bl      4a30 <ApcInitNode+0x42ec>
    4a34:	2f 03 00 00 	cmpwi   cr6,r3,0
    4a38:	40 9a 20 0c 	bne-    cr6,6a44 <ApcInitNode+0x6300>
    4a3c:	38 e0 00 c9 	li      r7,201
    4a40:	38 80 00 00 	li      r4,0
    4a44:	38 61 16 80 	addi    r3,r1,5760
    4a48:	90 e1 16 80 	stw     r7,5760(r1)
    4a4c:	90 81 16 84 	stw     r4,5764(r1)
    4a50:	90 e1 00 10 	stw     r7,16(r1)
    4a54:	90 81 00 14 	stw     r4,20(r1)
    4a58:	48 00 00 01 	bl      4a58 <ApcInitNode+0x4314>
    4a5c:	2f 83 00 00 	cmpwi   cr7,r3,0
    4a60:	40 9e 1f b8 	bne-    cr7,6a18 <ApcInitNode+0x62d4>
    4a64:	38 00 00 c3 	li      r0,195
    4a68:	38 a0 00 00 	li      r5,0
    4a6c:	38 61 16 90 	addi    r3,r1,5776
    4a70:	90 01 16 90 	stw     r0,5776(r1)
    4a74:	90 a1 16 94 	stw     r5,5780(r1)
    4a78:	90 01 00 10 	stw     r0,16(r1)
    4a7c:	90 a1 00 14 	stw     r5,20(r1)
    4a80:	48 00 00 01 	bl      4a80 <ApcInitNode+0x433c>
    4a84:	2c 03 00 00 	cmpwi   r3,0
    4a88:	40 82 1f 64 	bne-    69ec <ApcInitNode+0x62a8>
    4a8c:	39 60 00 c4 	li      r11,196
    4a90:	38 80 00 00 	li      r4,0
    4a94:	38 61 16 a0 	addi    r3,r1,5792
    4a98:	91 61 16 a0 	stw     r11,5792(r1)
    4a9c:	90 81 16 a4 	stw     r4,5796(r1)
    4aa0:	91 61 00 10 	stw     r11,16(r1)
    4aa4:	90 81 00 14 	stw     r4,20(r1)
    4aa8:	48 00 00 01 	bl      4aa8 <ApcInitNode+0x4364>
    4aac:	2c 83 00 00 	cmpwi   cr1,r3,0
    4ab0:	40 86 1f 10 	bne-    cr1,69c0 <ApcInitNode+0x627c>
    4ab4:	38 00 00 cd 	li      r0,205
    4ab8:	3b e0 00 00 	li      r31,0
    4abc:	38 61 16 b0 	addi    r3,r1,5808
    4ac0:	90 01 16 b0 	stw     r0,5808(r1)
    4ac4:	90 01 00 10 	stw     r0,16(r1)
    4ac8:	93 e1 00 14 	stw     r31,20(r1)
    4acc:	93 e1 16 b4 	stw     r31,5812(r1)
    4ad0:	48 00 00 01 	bl      4ad0 <ApcInitNode+0x438c>
    4ad4:	2f 03 00 00 	cmpwi   cr6,r3,0
    4ad8:	40 9a 1e bc 	bne-    cr6,6994 <ApcInitNode+0x6250>
    4adc:	38 80 00 cb 	li      r4,203
    4ae0:	38 61 16 c0 	addi    r3,r1,5824
    4ae4:	90 81 16 c0 	stw     r4,5824(r1)
    4ae8:	90 81 00 10 	stw     r4,16(r1)
    4aec:	93 e1 00 14 	stw     r31,20(r1)
    4af0:	93 e1 16 c4 	stw     r31,5828(r1)
    4af4:	48 00 00 01 	bl      4af4 <ApcInitNode+0x43b0>
    4af8:	2f 83 00 00 	cmpwi   cr7,r3,0
    4afc:	40 9e 1e 6c 	bne-    cr7,6968 <ApcInitNode+0x6224>
    4b00:	38 00 00 c5 	li      r0,197
    4b04:	38 61 16 d0 	addi    r3,r1,5840
    4b08:	90 01 16 d0 	stw     r0,5840(r1)
    4b0c:	90 01 00 10 	stw     r0,16(r1)
    4b10:	93 e1 00 14 	stw     r31,20(r1)
    4b14:	93 e1 16 d4 	stw     r31,5844(r1)
    4b18:	48 00 00 01 	bl      4b18 <ApcInitNode+0x43d4>
    4b1c:	2c 03 00 00 	cmpwi   r3,0
    4b20:	40 82 1e 1c 	bne-    693c <ApcInitNode+0x61f8>
    4b24:	38 80 00 bf 	li      r4,191
    4b28:	38 61 16 e0 	addi    r3,r1,5856
    4b2c:	90 81 16 e0 	stw     r4,5856(r1)
    4b30:	90 81 00 10 	stw     r4,16(r1)
    4b34:	93 e1 00 14 	stw     r31,20(r1)
    4b38:	93 e1 16 e4 	stw     r31,5860(r1)
    4b3c:	48 00 00 01 	bl      4b3c <ApcInitNode+0x43f8>
    4b40:	2c 83 00 00 	cmpwi   cr1,r3,0
    4b44:	40 86 1d cc 	bne-    cr1,6910 <ApcInitNode+0x61cc>
    4b48:	38 00 00 c1 	li      r0,193
    4b4c:	38 61 16 f0 	addi    r3,r1,5872
    4b50:	90 01 16 f0 	stw     r0,5872(r1)
    4b54:	90 01 00 10 	stw     r0,16(r1)
    4b58:	93 e1 00 14 	stw     r31,20(r1)
    4b5c:	93 e1 16 f4 	stw     r31,5876(r1)
    4b60:	48 00 00 01 	bl      4b60 <ApcInitNode+0x441c>
    4b64:	2f 03 00 00 	cmpwi   cr6,r3,0
    4b68:	40 9a 1d 7c 	bne-    cr6,68e4 <ApcInitNode+0x61a0>
    4b6c:	38 80 00 c7 	li      r4,199
    4b70:	38 61 17 00 	addi    r3,r1,5888
    4b74:	90 81 17 00 	stw     r4,5888(r1)
    4b78:	90 81 00 10 	stw     r4,16(r1)
    4b7c:	93 e1 00 14 	stw     r31,20(r1)
    4b80:	93 e1 17 04 	stw     r31,5892(r1)
    4b84:	48 00 00 01 	bl      4b84 <ApcInitNode+0x4440>
    4b88:	2f 83 00 00 	cmpwi   cr7,r3,0
    4b8c:	40 9e 1d 2c 	bne-    cr7,68b8 <ApcInitNode+0x6174>
    4b90:	38 00 00 c6 	li      r0,198
    4b94:	38 61 17 10 	addi    r3,r1,5904
    4b98:	90 01 17 10 	stw     r0,5904(r1)
    4b9c:	90 01 00 10 	stw     r0,16(r1)
    4ba0:	93 e1 00 14 	stw     r31,20(r1)
    4ba4:	93 e1 17 14 	stw     r31,5908(r1)
    4ba8:	48 00 00 01 	bl      4ba8 <ApcInitNode+0x4464>
    4bac:	2c 03 00 00 	cmpwi   r3,0
    4bb0:	40 82 22 b8 	bne-    6e68 <ApcInitNode+0x6724>
    4bb4:	38 80 00 c0 	li      r4,192
    4bb8:	38 61 17 20 	addi    r3,r1,5920
    4bbc:	90 81 17 20 	stw     r4,5920(r1)
    4bc0:	90 81 00 10 	stw     r4,16(r1)
    4bc4:	93 e1 00 14 	stw     r31,20(r1)
    4bc8:	93 e1 17 24 	stw     r31,5924(r1)
    4bcc:	48 00 00 01 	bl      4bcc <ApcInitNode+0x4488>
    4bd0:	2c 83 00 00 	cmpwi   cr1,r3,0
    4bd4:	40 86 22 68 	bne-    cr1,6e3c <ApcInitNode+0x66f8>
    4bd8:	38 00 00 c2 	li      r0,194
    4bdc:	38 61 17 30 	addi    r3,r1,5936
    4be0:	90 01 17 30 	stw     r0,5936(r1)
    4be4:	90 01 00 10 	stw     r0,16(r1)
    4be8:	93 e1 00 14 	stw     r31,20(r1)
    4bec:	93 e1 17 34 	stw     r31,5940(r1)
    4bf0:	48 00 00 01 	bl      4bf0 <ApcInitNode+0x44ac>
    4bf4:	2f 03 00 00 	cmpwi   cr6,r3,0
    4bf8:	40 9a 22 18 	bne-    cr6,6e10 <ApcInitNode+0x66cc>
    4bfc:	38 80 00 c8 	li      r4,200
    4c00:	38 61 17 40 	addi    r3,r1,5952
    4c04:	90 81 17 40 	stw     r4,5952(r1)
    4c08:	93 e1 17 44 	stw     r31,5956(r1)
    4c0c:	90 81 00 10 	stw     r4,16(r1)
    4c10:	93 e1 00 14 	stw     r31,20(r1)
    4c14:	48 00 00 01 	bl      4c14 <ApcInitNode+0x44d0>
    4c18:	2f 83 00 00 	cmpwi   cr7,r3,0
    4c1c:	40 9e 21 c8 	bne-    cr7,6de4 <ApcInitNode+0x66a0>
    4c20:	38 00 01 47 	li      r0,327
    4c24:	39 20 00 03 	li      r9,3
    4c28:	38 61 17 50 	addi    r3,r1,5968
    4c2c:	90 01 17 50 	stw     r0,5968(r1)
    4c30:	91 21 17 54 	stw     r9,5972(r1)
    4c34:	4b ff c1 f0 	b       e24 <ApcInitNode+0x6e0>
    4c38:	38 00 00 00 	li      r0,0
    4c3c:	38 61 17 60 	addi    r3,r1,5984
    4c40:	90 01 17 64 	stw     r0,5988(r1)
    4c44:	90 01 00 10 	stw     r0,16(r1)
    4c48:	90 01 00 14 	stw     r0,20(r1)
    4c4c:	90 01 17 60 	stw     r0,5984(r1)
    4c50:	48 00 00 01 	bl      4c50 <ApcInitNode+0x450c>
    4c54:	2c 03 00 00 	cmpwi   r3,0
    4c58:	40 82 47 e0 	bne-    9438 <ApcInitNode+0x8cf4>
    4c5c:	3b e0 00 04 	li      r31,4
    4c60:	38 80 00 00 	li      r4,0
    4c64:	38 61 17 70 	addi    r3,r1,6000
    4c68:	93 e1 17 70 	stw     r31,6000(r1)
    4c6c:	90 81 17 74 	stw     r4,6004(r1)
    4c70:	93 e1 00 10 	stw     r31,16(r1)
    4c74:	90 81 00 14 	stw     r4,20(r1)
    4c78:	48 00 00 01 	bl      4c78 <ApcInitNode+0x4534>
    4c7c:	2c 83 00 00 	cmpwi   cr1,r3,0
    4c80:	40 86 47 8c 	bne-    cr1,940c <ApcInitNode+0x8cc8>
    4c84:	38 00 00 08 	li      r0,8
    4c88:	39 80 00 00 	li      r12,0
    4c8c:	38 61 17 80 	addi    r3,r1,6016
    4c90:	90 01 17 80 	stw     r0,6016(r1)
    4c94:	91 81 17 84 	stw     r12,6020(r1)
    4c98:	90 01 00 10 	stw     r0,16(r1)
    4c9c:	91 81 00 14 	stw     r12,20(r1)
    4ca0:	48 00 00 01 	bl      4ca0 <ApcInitNode+0x455c>
    4ca4:	2f 03 00 00 	cmpwi   cr6,r3,0
    4ca8:	40 9a 47 38 	bne-    cr6,93e0 <ApcInitNode+0x8c9c>
    4cac:	39 60 00 0c 	li      r11,12
    4cb0:	38 80 00 00 	li      r4,0
    4cb4:	38 61 17 90 	addi    r3,r1,6032
    4cb8:	91 61 17 90 	stw     r11,6032(r1)
    4cbc:	90 81 17 94 	stw     r4,6036(r1)
    4cc0:	91 61 00 10 	stw     r11,16(r1)
    4cc4:	90 81 00 14 	stw     r4,20(r1)
    4cc8:	48 00 00 01 	bl      4cc8 <ApcInitNode+0x4584>
    4ccc:	2f 83 00 00 	cmpwi   cr7,r3,0
    4cd0:	40 9e 46 e4 	bne-    cr7,93b4 <ApcInitNode+0x8c70>
    4cd4:	38 00 00 ec 	li      r0,236
    4cd8:	38 c0 00 00 	li      r6,0
    4cdc:	38 61 17 a0 	addi    r3,r1,6048
    4ce0:	90 01 17 a0 	stw     r0,6048(r1)
    4ce4:	90 c1 17 a4 	stw     r6,6052(r1)
    4ce8:	90 01 00 10 	stw     r0,16(r1)
    4cec:	90 c1 00 14 	stw     r6,20(r1)
    4cf0:	48 00 00 01 	bl      4cf0 <ApcInitNode+0x45ac>
    4cf4:	2c 03 00 00 	cmpwi   r3,0
    4cf8:	40 82 46 90 	bne-    9388 <ApcInitNode+0x8c44>
    4cfc:	39 40 01 05 	li      r10,261
    4d00:	38 80 00 00 	li      r4,0
    4d04:	38 61 17 b0 	addi    r3,r1,6064
    4d08:	91 41 17 b0 	stw     r10,6064(r1)
    4d0c:	90 81 17 b4 	stw     r4,6068(r1)
    4d10:	91 41 00 10 	stw     r10,16(r1)
    4d14:	90 81 00 14 	stw     r4,20(r1)
    4d18:	48 00 00 01 	bl      4d18 <ApcInitNode+0x45d4>
    4d1c:	2c 83 00 00 	cmpwi   cr1,r3,0
    4d20:	40 86 46 3c 	bne-    cr1,935c <ApcInitNode+0x8c18>
    4d24:	38 00 01 11 	li      r0,273
    4d28:	3b e0 00 00 	li      r31,0
    4d2c:	38 61 17 c0 	addi    r3,r1,6080
    4d30:	90 01 17 c0 	stw     r0,6080(r1)
    4d34:	93 e1 17 c4 	stw     r31,6084(r1)
    4d38:	90 01 00 10 	stw     r0,16(r1)
    4d3c:	93 e1 00 14 	stw     r31,20(r1)
    4d40:	48 00 00 01 	bl      4d40 <ApcInitNode+0x45fc>
    4d44:	2f 03 00 00 	cmpwi   cr6,r3,0
    4d48:	40 9a 45 e8 	bne-    cr6,9330 <ApcInitNode+0x8bec>
    4d4c:	38 a0 01 1d 	li      r5,285
    4d50:	38 80 00 00 	li      r4,0
    4d54:	38 61 17 d0 	addi    r3,r1,6096
    4d58:	90 a1 17 d0 	stw     r5,6096(r1)
    4d5c:	90 81 17 d4 	stw     r4,6100(r1)
    4d60:	90 a1 00 10 	stw     r5,16(r1)
    4d64:	90 81 00 14 	stw     r4,20(r1)
    4d68:	48 00 00 01 	bl      4d68 <ApcInitNode+0x4624>
    4d6c:	2f 83 00 00 	cmpwi   cr7,r3,0
    4d70:	40 9e 45 94 	bne-    cr7,9304 <ApcInitNode+0x8bc0>
    4d74:	38 00 01 29 	li      r0,297
    4d78:	39 60 00 00 	li      r11,0
    4d7c:	38 61 17 e0 	addi    r3,r1,6112
    4d80:	90 01 17 e0 	stw     r0,6112(r1)
    4d84:	91 61 17 e4 	stw     r11,6116(r1)
    4d88:	90 01 00 10 	stw     r0,16(r1)
    4d8c:	91 61 00 14 	stw     r11,20(r1)
    4d90:	48 00 00 01 	bl      4d90 <ApcInitNode+0x464c>
    4d94:	2c 03 00 00 	cmpwi   r3,0
    4d98:	40 82 45 40 	bne-    92d8 <ApcInitNode+0x8b94>
    4d9c:	38 c0 01 35 	li      r6,309
    4da0:	38 80 00 00 	li      r4,0
    4da4:	38 61 17 f0 	addi    r3,r1,6128
    4da8:	90 c1 17 f0 	stw     r6,6128(r1)
    4dac:	90 81 17 f4 	stw     r4,6132(r1)
    4db0:	90 c1 00 10 	stw     r6,16(r1)
    4db4:	90 81 00 14 	stw     r4,20(r1)
    4db8:	48 00 00 01 	bl      4db8 <ApcInitNode+0x4674>
    4dbc:	2c 83 00 00 	cmpwi   cr1,r3,0
    4dc0:	40 86 44 ec 	bne-    cr1,92ac <ApcInitNode+0x8b68>
    4dc4:	38 00 01 41 	li      r0,321
    4dc8:	39 80 00 00 	li      r12,0
    4dcc:	38 61 18 00 	addi    r3,r1,6144
    4dd0:	90 01 18 00 	stw     r0,6144(r1)
    4dd4:	91 81 18 04 	stw     r12,6148(r1)
    4dd8:	90 01 00 10 	stw     r0,16(r1)
    4ddc:	91 81 00 14 	stw     r12,20(r1)
    4de0:	48 00 00 01 	bl      4de0 <ApcInitNode+0x469c>
    4de4:	2f 03 00 00 	cmpwi   cr6,r3,0
    4de8:	40 9a 44 98 	bne-    cr6,9280 <ApcInitNode+0x8b3c>
    4dec:	38 80 00 ed 	li      r4,237
    4df0:	3b e0 00 00 	li      r31,0
    4df4:	38 61 18 10 	addi    r3,r1,6160
    4df8:	90 81 18 10 	stw     r4,6160(r1)
    4dfc:	90 81 00 10 	stw     r4,16(r1)
    4e00:	93 e1 00 14 	stw     r31,20(r1)
    4e04:	93 e1 18 14 	stw     r31,6164(r1)
    4e08:	48 00 00 01 	bl      4e08 <ApcInitNode+0x46c4>
    4e0c:	2f 83 00 00 	cmpwi   cr7,r3,0
    4e10:	40 9e 44 44 	bne-    cr7,9254 <ApcInitNode+0x8b10>
    4e14:	38 00 00 ee 	li      r0,238
    4e18:	38 61 18 20 	addi    r3,r1,6176
    4e1c:	90 01 18 20 	stw     r0,6176(r1)
    4e20:	90 01 00 10 	stw     r0,16(r1)
    4e24:	93 e1 00 14 	stw     r31,20(r1)
    4e28:	93 e1 18 24 	stw     r31,6180(r1)
    4e2c:	48 00 00 01 	bl      4e2c <ApcInitNode+0x46e8>
    4e30:	2c 03 00 00 	cmpwi   r3,0
    4e34:	40 82 43 f4 	bne-    9228 <ApcInitNode+0x8ae4>
    4e38:	38 80 00 e6 	li      r4,230
    4e3c:	38 61 18 30 	addi    r3,r1,6192
    4e40:	90 81 18 30 	stw     r4,6192(r1)
    4e44:	90 81 00 10 	stw     r4,16(r1)
    4e48:	93 e1 00 14 	stw     r31,20(r1)
    4e4c:	93 e1 18 34 	stw     r31,6196(r1)
    4e50:	48 00 00 01 	bl      4e50 <ApcInitNode+0x470c>
    4e54:	2c 83 00 00 	cmpwi   cr1,r3,0
    4e58:	40 86 43 a4 	bne-    cr1,91fc <ApcInitNode+0x8ab8>
    4e5c:	38 00 00 ea 	li      r0,234
    4e60:	38 61 18 40 	addi    r3,r1,6208
    4e64:	90 01 18 40 	stw     r0,6208(r1)
    4e68:	90 01 00 10 	stw     r0,16(r1)
    4e6c:	93 e1 00 14 	stw     r31,20(r1)
    4e70:	93 e1 18 44 	stw     r31,6212(r1)
    4e74:	48 00 00 01 	bl      4e74 <ApcInitNode+0x4730>
    4e78:	2f 03 00 00 	cmpwi   cr6,r3,0
    4e7c:	40 9a 43 54 	bne-    cr6,91d0 <ApcInitNode+0x8a8c>
    4e80:	38 80 00 e4 	li      r4,228
    4e84:	38 61 18 50 	addi    r3,r1,6224
    4e88:	90 81 18 50 	stw     r4,6224(r1)
    4e8c:	90 81 00 10 	stw     r4,16(r1)
    4e90:	93 e1 00 14 	stw     r31,20(r1)
    4e94:	93 e1 18 54 	stw     r31,6228(r1)
    4e98:	48 00 00 01 	bl      4e98 <ApcInitNode+0x4754>
    4e9c:	2f 83 00 00 	cmpwi   cr7,r3,0
    4ea0:	40 9e 43 04 	bne-    cr7,91a4 <ApcInitNode+0x8a60>
    4ea4:	38 00 00 e8 	li      r0,232
    4ea8:	38 61 18 60 	addi    r3,r1,6240
    4eac:	90 01 18 60 	stw     r0,6240(r1)
    4eb0:	90 01 00 10 	stw     r0,16(r1)
    4eb4:	93 e1 00 14 	stw     r31,20(r1)
    4eb8:	93 e1 18 64 	stw     r31,6244(r1)
    4ebc:	48 00 00 01 	bl      4ebc <ApcInitNode+0x4778>
    4ec0:	2c 03 00 00 	cmpwi   r3,0
    4ec4:	40 82 42 b4 	bne-    9178 <ApcInitNode+0x8a34>
    4ec8:	38 80 00 e7 	li      r4,231
    4ecc:	38 61 18 70 	addi    r3,r1,6256
    4ed0:	90 81 18 70 	stw     r4,6256(r1)
    4ed4:	90 81 00 10 	stw     r4,16(r1)
    4ed8:	93 e1 00 14 	stw     r31,20(r1)
    4edc:	93 e1 18 74 	stw     r31,6260(r1)
    4ee0:	48 00 00 01 	bl      4ee0 <ApcInitNode+0x479c>
    4ee4:	2c 83 00 00 	cmpwi   cr1,r3,0
    4ee8:	40 86 42 64 	bne-    cr1,914c <ApcInitNode+0x8a08>
    4eec:	38 00 00 eb 	li      r0,235
    4ef0:	38 61 18 80 	addi    r3,r1,6272
    4ef4:	90 01 18 80 	stw     r0,6272(r1)
    4ef8:	90 01 00 10 	stw     r0,16(r1)
    4efc:	93 e1 00 14 	stw     r31,20(r1)
    4f00:	93 e1 18 84 	stw     r31,6276(r1)
    4f04:	48 00 00 01 	bl      4f04 <ApcInitNode+0x47c0>
    4f08:	2f 03 00 00 	cmpwi   cr6,r3,0
    4f0c:	40 9a 42 14 	bne-    cr6,9120 <ApcInitNode+0x89dc>
    4f10:	38 80 00 e5 	li      r4,229
    4f14:	38 61 18 90 	addi    r3,r1,6288
    4f18:	90 81 18 90 	stw     r4,6288(r1)
    4f1c:	90 81 00 10 	stw     r4,16(r1)
    4f20:	93 e1 00 14 	stw     r31,20(r1)
    4f24:	93 e1 18 94 	stw     r31,6292(r1)
    4f28:	48 00 00 01 	bl      4f28 <ApcInitNode+0x47e4>
    4f2c:	2f 83 00 00 	cmpwi   cr7,r3,0
    4f30:	40 9e 41 c4 	bne-    cr7,90f4 <ApcInitNode+0x89b0>
    4f34:	38 00 00 e9 	li      r0,233
    4f38:	38 61 18 a0 	addi    r3,r1,6304
    4f3c:	90 01 18 a0 	stw     r0,6304(r1)
    4f40:	93 e1 18 a4 	stw     r31,6308(r1)
    4f44:	90 01 00 10 	stw     r0,16(r1)
    4f48:	93 e1 00 14 	stw     r31,20(r1)
    4f4c:	48 00 00 01 	bl      4f4c <ApcInitNode+0x4808>
    4f50:	2c 03 00 00 	cmpwi   r3,0
    4f54:	40 82 41 74 	bne-    90c8 <ApcInitNode+0x8984>
    4f58:	38 00 01 47 	li      r0,327
    4f5c:	39 20 00 03 	li      r9,3
    4f60:	38 61 18 b0 	addi    r3,r1,6320
    4f64:	90 01 18 b0 	stw     r0,6320(r1)
    4f68:	91 21 18 b4 	stw     r9,6324(r1)
    4f6c:	4b ff be b8 	b       e24 <ApcInitNode+0x6e0>
    4f70:	39 80 00 02 	li      r12,2
    4f74:	38 80 00 00 	li      r4,0
    4f78:	38 61 05 10 	addi    r3,r1,1296
    4f7c:	91 81 05 10 	stw     r12,1296(r1)
    4f80:	90 81 05 14 	stw     r4,1300(r1)
    4f84:	91 81 00 10 	stw     r12,16(r1)
    4f88:	90 81 00 14 	stw     r4,20(r1)
    4f8c:	48 00 00 01 	bl      4f8c <ApcInitNode+0x4848>
    4f90:	2c 83 00 00 	cmpwi   cr1,r3,0
    4f94:	40 86 4f a4 	bne-    cr1,9f38 <ApcInitNode+0x97f4>
    4f98:	38 00 00 06 	li      r0,6
    4f9c:	39 60 00 00 	li      r11,0
    4fa0:	38 61 05 20 	addi    r3,r1,1312
    4fa4:	90 01 05 20 	stw     r0,1312(r1)
    4fa8:	91 61 05 24 	stw     r11,1316(r1)
    4fac:	90 01 00 10 	stw     r0,16(r1)
    4fb0:	91 61 00 14 	stw     r11,20(r1)
    4fb4:	48 00 00 01 	bl      4fb4 <ApcInitNode+0x4870>
    4fb8:	2f 03 00 00 	cmpwi   cr6,r3,0
    4fbc:	40 9a 4f 50 	bne-    cr6,9f0c <ApcInitNode+0x97c8>
    4fc0:	38 e0 00 0a 	li      r7,10
    4fc4:	38 80 00 00 	li      r4,0
    4fc8:	38 61 05 30 	addi    r3,r1,1328
    4fcc:	90 e1 05 30 	stw     r7,1328(r1)
    4fd0:	90 81 05 34 	stw     r4,1332(r1)
    4fd4:	90 e1 00 10 	stw     r7,16(r1)
    4fd8:	90 81 00 14 	stw     r4,20(r1)
    4fdc:	48 00 00 01 	bl      4fdc <ApcInitNode+0x4898>
    4fe0:	2f 83 00 00 	cmpwi   cr7,r3,0
    4fe4:	40 9e 4e fc 	bne-    cr7,9ee0 <ApcInitNode+0x979c>
    4fe8:	38 00 00 0e 	li      r0,14
    4fec:	39 40 00 00 	li      r10,0
    4ff0:	38 61 05 40 	addi    r3,r1,1344
    4ff4:	90 01 05 40 	stw     r0,1344(r1)
    4ff8:	91 41 05 44 	stw     r10,1348(r1)
    4ffc:	90 01 00 10 	stw     r0,16(r1)
    5000:	91 41 00 14 	stw     r10,20(r1)
    5004:	48 00 00 01 	bl      5004 <ApcInitNode+0x48c0>
    5008:	2c 03 00 00 	cmpwi   r3,0
    500c:	40 82 4e a8 	bne-    9eb4 <ApcInitNode+0x9770>
    5010:	39 00 00 2f 	li      r8,47
    5014:	38 80 00 00 	li      r4,0
    5018:	38 61 05 50 	addi    r3,r1,1360
    501c:	91 01 05 50 	stw     r8,1360(r1)
    5020:	90 81 05 54 	stw     r4,1364(r1)
    5024:	91 01 00 10 	stw     r8,16(r1)
    5028:	90 81 00 14 	stw     r4,20(r1)
    502c:	48 00 00 01 	bl      502c <ApcInitNode+0x48e8>
    5030:	2c 83 00 00 	cmpwi   cr1,r3,0
    5034:	40 86 4e 54 	bne-    cr1,9e88 <ApcInitNode+0x9744>
    5038:	38 00 00 30 	li      r0,48
    503c:	38 c0 00 00 	li      r6,0
    5040:	38 61 05 60 	addi    r3,r1,1376
    5044:	90 01 05 60 	stw     r0,1376(r1)
    5048:	90 c1 05 64 	stw     r6,1380(r1)
    504c:	90 01 00 10 	stw     r0,16(r1)
    5050:	90 c1 00 14 	stw     r6,20(r1)
    5054:	48 00 00 01 	bl      5054 <ApcInitNode+0x4910>
    5058:	2f 03 00 00 	cmpwi   cr6,r3,0
    505c:	40 9a 4e 00 	bne-    cr6,9e5c <ApcInitNode+0x9718>
    5060:	39 60 00 3d 	li      r11,61
    5064:	38 80 00 00 	li      r4,0
    5068:	38 61 05 70 	addi    r3,r1,1392
    506c:	91 61 05 70 	stw     r11,1392(r1)
    5070:	90 81 05 74 	stw     r4,1396(r1)
    5074:	91 61 00 10 	stw     r11,16(r1)
    5078:	90 81 00 14 	stw     r4,20(r1)
    507c:	48 00 00 01 	bl      507c <ApcInitNode+0x4938>
    5080:	2f 83 00 00 	cmpwi   cr7,r3,0
    5084:	40 9e 4d ac 	bne-    cr7,9e30 <ApcInitNode+0x96ec>
    5088:	38 00 00 3e 	li      r0,62
    508c:	38 a0 00 00 	li      r5,0
    5090:	38 61 05 80 	addi    r3,r1,1408
    5094:	90 01 05 80 	stw     r0,1408(r1)
    5098:	90 a1 05 84 	stw     r5,1412(r1)
    509c:	90 01 00 10 	stw     r0,16(r1)
    50a0:	90 a1 00 14 	stw     r5,20(r1)
    50a4:	48 00 00 01 	bl      50a4 <ApcInitNode+0x4960>
    50a8:	2c 03 00 00 	cmpwi   r3,0
    50ac:	40 82 4d 58 	bne-    9e04 <ApcInitNode+0x96c0>
    50b0:	39 80 00 45 	li      r12,69
    50b4:	38 80 00 00 	li      r4,0
    50b8:	38 61 05 90 	addi    r3,r1,1424
    50bc:	91 81 05 90 	stw     r12,1424(r1)
    50c0:	90 81 05 94 	stw     r4,1428(r1)
    50c4:	91 81 00 10 	stw     r12,16(r1)
    50c8:	90 81 00 14 	stw     r4,20(r1)
    50cc:	48 00 00 01 	bl      50cc <ApcInitNode+0x4988>
    50d0:	2c 83 00 00 	cmpwi   cr1,r3,0
    50d4:	40 86 4d 04 	bne-    cr1,9dd8 <ApcInitNode+0x9694>
    50d8:	38 00 00 46 	li      r0,70
    50dc:	39 00 00 00 	li      r8,0
    50e0:	38 61 05 a0 	addi    r3,r1,1440
    50e4:	90 01 05 a0 	stw     r0,1440(r1)
    50e8:	91 01 05 a4 	stw     r8,1444(r1)
    50ec:	90 01 00 10 	stw     r0,16(r1)
    50f0:	91 01 00 14 	stw     r8,20(r1)
    50f4:	48 00 00 01 	bl      50f4 <ApcInitNode+0x49b0>
    50f8:	2f 03 00 00 	cmpwi   cr6,r3,0
    50fc:	40 9a 4c b0 	bne-    cr6,9dac <ApcInitNode+0x9668>
    5100:	38 e0 00 5e 	li      r7,94
    5104:	38 80 00 00 	li      r4,0
    5108:	38 61 05 b0 	addi    r3,r1,1456
    510c:	90 e1 05 b0 	stw     r7,1456(r1)
    5110:	90 81 05 b4 	stw     r4,1460(r1)
    5114:	90 e1 00 10 	stw     r7,16(r1)
    5118:	90 81 00 14 	stw     r4,20(r1)
    511c:	48 00 00 01 	bl      511c <ApcInitNode+0x49d8>
    5120:	2f 83 00 00 	cmpwi   cr7,r3,0
    5124:	40 9e 4c 5c 	bne-    cr7,9d80 <ApcInitNode+0x963c>
    5128:	38 00 00 5a 	li      r0,90
    512c:	39 60 00 00 	li      r11,0
    5130:	38 61 05 c0 	addi    r3,r1,1472
    5134:	90 01 05 c0 	stw     r0,1472(r1)
    5138:	91 61 05 c4 	stw     r11,1476(r1)
    513c:	90 01 00 10 	stw     r0,16(r1)
    5140:	91 61 00 14 	stw     r11,20(r1)
    5144:	48 00 00 01 	bl      5144 <ApcInitNode+0x4a00>
    5148:	2c 03 00 00 	cmpwi   r3,0
    514c:	40 82 4c 08 	bne-    9d54 <ApcInitNode+0x9610>
    5150:	38 a0 00 5b 	li      r5,91
    5154:	38 80 00 00 	li      r4,0
    5158:	38 61 05 d0 	addi    r3,r1,1488
    515c:	90 a1 05 d0 	stw     r5,1488(r1)
    5160:	90 81 05 d4 	stw     r4,1492(r1)
    5164:	90 a1 00 10 	stw     r5,16(r1)
    5168:	90 81 00 14 	stw     r4,20(r1)
    516c:	48 00 00 01 	bl      516c <ApcInitNode+0x4a28>
    5170:	2c 83 00 00 	cmpwi   cr1,r3,0
    5174:	40 86 4b b4 	bne-    cr1,9d28 <ApcInitNode+0x95e4>
    5178:	38 00 00 62 	li      r0,98
    517c:	39 80 00 00 	li      r12,0
    5180:	38 61 05 e0 	addi    r3,r1,1504
    5184:	90 01 05 e0 	stw     r0,1504(r1)
    5188:	91 81 05 e4 	stw     r12,1508(r1)
    518c:	90 01 00 10 	stw     r0,16(r1)
    5190:	91 81 00 14 	stw     r12,20(r1)
    5194:	48 00 00 01 	bl      5194 <ApcInitNode+0x4a50>
    5198:	2f 03 00 00 	cmpwi   cr6,r3,0
    519c:	40 9a 4b 60 	bne-    cr6,9cfc <ApcInitNode+0x95b8>
    51a0:	38 80 00 63 	li      r4,99
    51a4:	3b e0 00 00 	li      r31,0
    51a8:	38 61 05 f0 	addi    r3,r1,1520
    51ac:	90 81 05 f0 	stw     r4,1520(r1)
    51b0:	90 81 00 10 	stw     r4,16(r1)
    51b4:	93 e1 00 14 	stw     r31,20(r1)
    51b8:	93 e1 05 f4 	stw     r31,1524(r1)
    51bc:	48 00 00 01 	bl      51bc <ApcInitNode+0x4a78>
    51c0:	2f 83 00 00 	cmpwi   cr7,r3,0
    51c4:	40 9e 4b 0c 	bne-    cr7,9cd0 <ApcInitNode+0x958c>
    51c8:	38 00 01 05 	li      r0,261
    51cc:	38 61 06 00 	addi    r3,r1,1536
    51d0:	90 01 06 00 	stw     r0,1536(r1)
    51d4:	90 01 00 10 	stw     r0,16(r1)
    51d8:	93 e1 00 14 	stw     r31,20(r1)
    51dc:	93 e1 06 04 	stw     r31,1540(r1)
    51e0:	48 00 00 01 	bl      51e0 <ApcInitNode+0x4a9c>
    51e4:	2c 03 00 00 	cmpwi   r3,0
    51e8:	40 82 4a bc 	bne-    9ca4 <ApcInitNode+0x9560>
    51ec:	38 80 01 11 	li      r4,273
    51f0:	38 61 06 10 	addi    r3,r1,1552
    51f4:	90 81 06 10 	stw     r4,1552(r1)
    51f8:	90 81 00 10 	stw     r4,16(r1)
    51fc:	93 e1 00 14 	stw     r31,20(r1)
    5200:	93 e1 06 14 	stw     r31,1556(r1)
    5204:	48 00 00 01 	bl      5204 <ApcInitNode+0x4ac0>
    5208:	2c 83 00 00 	cmpwi   cr1,r3,0
    520c:	40 86 4a 6c 	bne-    cr1,9c78 <ApcInitNode+0x9534>
    5210:	38 00 01 1d 	li      r0,285
    5214:	38 61 06 20 	addi    r3,r1,1568
    5218:	90 01 06 20 	stw     r0,1568(r1)
    521c:	90 01 00 10 	stw     r0,16(r1)
    5220:	93 e1 00 14 	stw     r31,20(r1)
    5224:	93 e1 06 24 	stw     r31,1572(r1)
    5228:	48 00 00 01 	bl      5228 <ApcInitNode+0x4ae4>
    522c:	2f 03 00 00 	cmpwi   cr6,r3,0
    5230:	40 9a 4a 1c 	bne-    cr6,9c4c <ApcInitNode+0x9508>
    5234:	38 80 01 29 	li      r4,297
    5238:	38 61 06 30 	addi    r3,r1,1584
    523c:	90 81 06 30 	stw     r4,1584(r1)
    5240:	90 81 00 10 	stw     r4,16(r1)
    5244:	93 e1 00 14 	stw     r31,20(r1)
    5248:	93 e1 06 34 	stw     r31,1588(r1)
    524c:	48 00 00 01 	bl      524c <ApcInitNode+0x4b08>
    5250:	2f 83 00 00 	cmpwi   cr7,r3,0
    5254:	40 9e 49 cc 	bne-    cr7,9c20 <ApcInitNode+0x94dc>
    5258:	38 00 01 35 	li      r0,309
    525c:	38 61 06 40 	addi    r3,r1,1600
    5260:	90 01 06 40 	stw     r0,1600(r1)
    5264:	90 01 00 10 	stw     r0,16(r1)
    5268:	93 e1 00 14 	stw     r31,20(r1)
    526c:	93 e1 06 44 	stw     r31,1604(r1)
    5270:	48 00 00 01 	bl      5270 <ApcInitNode+0x4b2c>
    5274:	2c 03 00 00 	cmpwi   r3,0
    5278:	40 82 49 7c 	bne-    9bf4 <ApcInitNode+0x94b0>
    527c:	38 80 01 41 	li      r4,321
    5280:	38 61 06 50 	addi    r3,r1,1616
    5284:	90 81 06 50 	stw     r4,1616(r1)
    5288:	90 81 00 10 	stw     r4,16(r1)
    528c:	93 e1 00 14 	stw     r31,20(r1)
    5290:	93 e1 06 54 	stw     r31,1620(r1)
    5294:	48 00 00 01 	bl      5294 <ApcInitNode+0x4b50>
    5298:	2c 83 00 00 	cmpwi   cr1,r3,0
    529c:	40 86 49 2c 	bne-    cr1,9bc8 <ApcInitNode+0x9484>
    52a0:	38 00 00 75 	li      r0,117
    52a4:	38 61 06 60 	addi    r3,r1,1632
    52a8:	90 01 06 60 	stw     r0,1632(r1)
    52ac:	90 01 00 10 	stw     r0,16(r1)
    52b0:	93 e1 00 14 	stw     r31,20(r1)
    52b4:	93 e1 06 64 	stw     r31,1636(r1)
    52b8:	48 00 00 01 	bl      52b8 <ApcInitNode+0x4b74>
    52bc:	2f 03 00 00 	cmpwi   cr6,r3,0
    52c0:	40 9a 48 dc 	bne-    cr6,9b9c <ApcInitNode+0x9458>
    52c4:	38 80 00 70 	li      r4,112
    52c8:	38 61 06 70 	addi    r3,r1,1648
    52cc:	90 81 06 70 	stw     r4,1648(r1)
    52d0:	90 81 00 10 	stw     r4,16(r1)
    52d4:	93 e1 00 14 	stw     r31,20(r1)
    52d8:	93 e1 06 74 	stw     r31,1652(r1)
    52dc:	48 00 00 01 	bl      52dc <ApcInitNode+0x4b98>
    52e0:	2f 83 00 00 	cmpwi   cr7,r3,0
    52e4:	40 9e 48 8c 	bne-    cr7,9b70 <ApcInitNode+0x942c>
    52e8:	38 00 00 a8 	li      r0,168
    52ec:	38 61 06 80 	addi    r3,r1,1664
    52f0:	90 01 06 80 	stw     r0,1664(r1)
    52f4:	93 e1 06 84 	stw     r31,1668(r1)
    52f8:	90 01 00 10 	stw     r0,16(r1)
    52fc:	93 e1 00 14 	stw     r31,20(r1)
    5300:	48 00 00 01 	bl      5300 <ApcInitNode+0x4bbc>
    5304:	2c 03 00 00 	cmpwi   r3,0
    5308:	40 82 48 3c 	bne-    9b44 <ApcInitNode+0x9400>
    530c:	38 00 01 47 	li      r0,327
    5310:	39 20 00 03 	li      r9,3
    5314:	38 61 06 90 	addi    r3,r1,1680
    5318:	90 01 06 90 	stw     r0,1680(r1)
    531c:	91 21 06 94 	stw     r9,1684(r1)
    5320:	4b ff bb 04 	b       e24 <ApcInitNode+0x6e0>
    5324:	38 00 00 02 	li      r0,2
    5328:	39 00 00 00 	li      r8,0
    532c:	38 61 14 40 	addi    r3,r1,5184
    5330:	90 01 14 40 	stw     r0,5184(r1)
    5334:	91 01 14 44 	stw     r8,5188(r1)
    5338:	90 01 00 10 	stw     r0,16(r1)
    533c:	91 01 00 14 	stw     r8,20(r1)
    5340:	48 00 00 01 	bl      5340 <ApcInitNode+0x4bfc>
    5344:	2c 03 00 00 	cmpwi   r3,0
    5348:	40 82 0a 44 	bne-    5d8c <ApcInitNode+0x5648>
    534c:	39 80 00 06 	li      r12,6
    5350:	38 80 00 00 	li      r4,0
    5354:	38 61 14 50 	addi    r3,r1,5200
    5358:	91 81 14 50 	stw     r12,5200(r1)
    535c:	90 81 14 54 	stw     r4,5204(r1)
    5360:	91 81 00 10 	stw     r12,16(r1)
    5364:	90 81 00 14 	stw     r4,20(r1)
    5368:	48 00 00 01 	bl      5368 <ApcInitNode+0x4c24>
    536c:	2c 83 00 00 	cmpwi   cr1,r3,0
    5370:	40 86 09 f0 	bne-    cr1,5d60 <ApcInitNode+0x561c>
    5374:	38 00 00 0a 	li      r0,10
    5378:	39 40 00 00 	li      r10,0
    537c:	38 61 14 60 	addi    r3,r1,5216
    5380:	90 01 14 60 	stw     r0,5216(r1)
    5384:	91 41 14 64 	stw     r10,5220(r1)
    5388:	90 01 00 10 	stw     r0,16(r1)
    538c:	91 41 00 14 	stw     r10,20(r1)
    5390:	48 00 00 01 	bl      5390 <ApcInitNode+0x4c4c>
    5394:	2f 03 00 00 	cmpwi   cr6,r3,0
    5398:	40 9a 09 9c 	bne-    cr6,5d34 <ApcInitNode+0x55f0>
    539c:	38 e0 00 0e 	li      r7,14
    53a0:	38 80 00 00 	li      r4,0
    53a4:	38 61 14 70 	addi    r3,r1,5232
    53a8:	90 e1 14 70 	stw     r7,5232(r1)
    53ac:	90 81 14 74 	stw     r4,5236(r1)
    53b0:	90 e1 00 10 	stw     r7,16(r1)
    53b4:	90 81 00 14 	stw     r4,20(r1)
    53b8:	48 00 00 01 	bl      53b8 <ApcInitNode+0x4c74>
    53bc:	2f 83 00 00 	cmpwi   cr7,r3,0
    53c0:	40 9e 09 48 	bne-    cr7,5d08 <ApcInitNode+0x55c4>
    53c4:	38 00 01 05 	li      r0,261
    53c8:	3b e0 00 00 	li      r31,0
    53cc:	38 61 14 80 	addi    r3,r1,5248
    53d0:	90 01 14 80 	stw     r0,5248(r1)
    53d4:	93 e1 14 84 	stw     r31,5252(r1)
    53d8:	90 01 00 10 	stw     r0,16(r1)
    53dc:	93 e1 00 14 	stw     r31,20(r1)
    53e0:	48 00 00 01 	bl      53e0 <ApcInitNode+0x4c9c>
    53e4:	2c 03 00 00 	cmpwi   r3,0
    53e8:	40 82 08 f4 	bne-    5cdc <ApcInitNode+0x5598>
    53ec:	39 60 01 11 	li      r11,273
    53f0:	38 80 00 00 	li      r4,0
    53f4:	38 61 14 90 	addi    r3,r1,5264
    53f8:	91 61 14 90 	stw     r11,5264(r1)
    53fc:	90 81 14 94 	stw     r4,5268(r1)
    5400:	91 61 00 10 	stw     r11,16(r1)
    5404:	90 81 00 14 	stw     r4,20(r1)
    5408:	48 00 00 01 	bl      5408 <ApcInitNode+0x4cc4>
    540c:	2c 83 00 00 	cmpwi   cr1,r3,0
    5410:	40 86 08 a0 	bne-    cr1,5cb0 <ApcInitNode+0x556c>
    5414:	38 00 01 1d 	li      r0,285
    5418:	38 c0 00 00 	li      r6,0
    541c:	38 61 14 a0 	addi    r3,r1,5280
    5420:	90 01 14 a0 	stw     r0,5280(r1)
    5424:	90 c1 14 a4 	stw     r6,5284(r1)
    5428:	90 01 00 10 	stw     r0,16(r1)
    542c:	90 c1 00 14 	stw     r6,20(r1)
    5430:	48 00 00 01 	bl      5430 <ApcInitNode+0x4cec>
    5434:	2f 03 00 00 	cmpwi   cr6,r3,0
    5438:	40 9a 08 4c 	bne-    cr6,5c84 <ApcInitNode+0x5540>
    543c:	3b e0 01 29 	li      r31,297
    5440:	38 80 00 00 	li      r4,0
    5444:	38 61 14 b0 	addi    r3,r1,5296
    5448:	93 e1 14 b0 	stw     r31,5296(r1)
    544c:	90 81 14 b4 	stw     r4,5300(r1)
    5450:	93 e1 00 10 	stw     r31,16(r1)
    5454:	90 81 00 14 	stw     r4,20(r1)
    5458:	48 00 00 01 	bl      5458 <ApcInitNode+0x4d14>
    545c:	2f 83 00 00 	cmpwi   cr7,r3,0
    5460:	40 9e 07 f8 	bne-    cr7,5c58 <ApcInitNode+0x5514>
    5464:	38 00 01 35 	li      r0,309
    5468:	39 00 00 00 	li      r8,0
    546c:	38 61 14 c0 	addi    r3,r1,5312
    5470:	90 01 14 c0 	stw     r0,5312(r1)
    5474:	91 01 14 c4 	stw     r8,5316(r1)
    5478:	90 01 00 10 	stw     r0,16(r1)
    547c:	91 01 00 14 	stw     r8,20(r1)
    5480:	48 00 00 01 	bl      5480 <ApcInitNode+0x4d3c>
    5484:	2c 03 00 00 	cmpwi   r3,0
    5488:	40 82 07 a4 	bne-    5c2c <ApcInitNode+0x54e8>
    548c:	39 80 01 41 	li      r12,321
    5490:	38 80 00 00 	li      r4,0
    5494:	38 61 14 d0 	addi    r3,r1,5328
    5498:	91 81 14 d0 	stw     r12,5328(r1)
    549c:	90 81 14 d4 	stw     r4,5332(r1)
    54a0:	91 81 00 10 	stw     r12,16(r1)
    54a4:	90 81 00 14 	stw     r4,20(r1)
    54a8:	48 00 00 01 	bl      54a8 <ApcInitNode+0x4d64>
    54ac:	2c 83 00 00 	cmpwi   cr1,r3,0
    54b0:	40 86 07 50 	bne-    cr1,5c00 <ApcInitNode+0x54bc>
    54b4:	38 00 00 bb 	li      r0,187
    54b8:	39 40 00 00 	li      r10,0
    54bc:	38 61 14 e0 	addi    r3,r1,5344
    54c0:	90 01 14 e0 	stw     r0,5344(r1)
    54c4:	91 41 14 e4 	stw     r10,5348(r1)
    54c8:	90 01 00 10 	stw     r0,16(r1)
    54cc:	91 41 00 14 	stw     r10,20(r1)
    54d0:	48 00 00 01 	bl      54d0 <ApcInitNode+0x4d8c>
    54d4:	2f 03 00 00 	cmpwi   cr6,r3,0
    54d8:	40 9a 06 fc 	bne-    cr6,5bd4 <ApcInitNode+0x5490>
    54dc:	38 e0 00 ba 	li      r7,186
    54e0:	38 80 00 00 	li      r4,0
    54e4:	38 61 14 f0 	addi    r3,r1,5360
    54e8:	90 e1 14 f0 	stw     r7,5360(r1)
    54ec:	90 81 14 f4 	stw     r4,5364(r1)
    54f0:	90 e1 00 10 	stw     r7,16(r1)
    54f4:	90 81 00 14 	stw     r4,20(r1)
    54f8:	48 00 00 01 	bl      54f8 <ApcInitNode+0x4db4>
    54fc:	2f 83 00 00 	cmpwi   cr7,r3,0
    5500:	40 9e 06 a8 	bne-    cr7,5ba8 <ApcInitNode+0x5464>
    5504:	38 00 00 b4 	li      r0,180
    5508:	38 a0 00 00 	li      r5,0
    550c:	38 61 15 00 	addi    r3,r1,5376
    5510:	90 01 15 00 	stw     r0,5376(r1)
    5514:	90 a1 15 04 	stw     r5,5380(r1)
    5518:	90 01 00 10 	stw     r0,16(r1)
    551c:	90 a1 00 14 	stw     r5,20(r1)
    5520:	48 00 00 01 	bl      5520 <ApcInitNode+0x4ddc>
    5524:	2c 03 00 00 	cmpwi   r3,0
    5528:	40 82 06 54 	bne-    5b7c <ApcInitNode+0x5438>
    552c:	39 60 00 b5 	li      r11,181
    5530:	38 80 00 00 	li      r4,0
    5534:	38 61 15 10 	addi    r3,r1,5392
    5538:	91 61 15 10 	stw     r11,5392(r1)
    553c:	90 81 15 14 	stw     r4,5396(r1)
    5540:	91 61 00 10 	stw     r11,16(r1)
    5544:	90 81 00 14 	stw     r4,20(r1)
    5548:	48 00 00 01 	bl      5548 <ApcInitNode+0x4e04>
    554c:	2c 83 00 00 	cmpwi   cr1,r3,0
    5550:	40 86 06 00 	bne-    cr1,5b50 <ApcInitNode+0x540c>
    5554:	38 00 00 be 	li      r0,190
    5558:	3b e0 00 00 	li      r31,0
    555c:	38 61 15 20 	addi    r3,r1,5408
    5560:	90 01 15 20 	stw     r0,5408(r1)
    5564:	90 01 00 10 	stw     r0,16(r1)
    5568:	93 e1 00 14 	stw     r31,20(r1)
    556c:	93 e1 15 24 	stw     r31,5412(r1)
    5570:	48 00 00 01 	bl      5570 <ApcInitNode+0x4e2c>
    5574:	2f 03 00 00 	cmpwi   cr6,r3,0
    5578:	40 9a 05 ac 	bne-    cr6,5b24 <ApcInitNode+0x53e0>
    557c:	38 80 00 bc 	li      r4,188
    5580:	38 61 15 30 	addi    r3,r1,5424
    5584:	90 81 15 30 	stw     r4,5424(r1)
    5588:	90 81 00 10 	stw     r4,16(r1)
    558c:	93 e1 00 14 	stw     r31,20(r1)
    5590:	93 e1 15 34 	stw     r31,5428(r1)
    5594:	48 00 00 01 	bl      5594 <ApcInitNode+0x4e50>
    5598:	2f 83 00 00 	cmpwi   cr7,r3,0
    559c:	40 9e 05 5c 	bne-    cr7,5af8 <ApcInitNode+0x53b4>
    55a0:	38 00 00 b6 	li      r0,182
    55a4:	38 61 15 40 	addi    r3,r1,5440
    55a8:	90 01 15 40 	stw     r0,5440(r1)
    55ac:	90 01 00 10 	stw     r0,16(r1)
    55b0:	93 e1 00 14 	stw     r31,20(r1)
    55b4:	93 e1 15 44 	stw     r31,5444(r1)
    55b8:	48 00 00 01 	bl      55b8 <ApcInitNode+0x4e74>
    55bc:	2c 03 00 00 	cmpwi   r3,0
    55c0:	40 82 05 0c 	bne-    5acc <ApcInitNode+0x5388>
    55c4:	38 80 00 b0 	li      r4,176
    55c8:	38 61 15 50 	addi    r3,r1,5456
    55cc:	90 81 15 50 	stw     r4,5456(r1)
    55d0:	90 81 00 10 	stw     r4,16(r1)
    55d4:	93 e1 00 14 	stw     r31,20(r1)
    55d8:	93 e1 15 54 	stw     r31,5460(r1)
    55dc:	48 00 00 01 	bl      55dc <ApcInitNode+0x4e98>
    55e0:	2c 83 00 00 	cmpwi   cr1,r3,0
    55e4:	40 86 04 bc 	bne-    cr1,5aa0 <ApcInitNode+0x535c>
    55e8:	38 00 00 b2 	li      r0,178
    55ec:	38 61 15 60 	addi    r3,r1,5472
    55f0:	90 01 15 60 	stw     r0,5472(r1)
    55f4:	90 01 00 10 	stw     r0,16(r1)
    55f8:	93 e1 00 14 	stw     r31,20(r1)
    55fc:	93 e1 15 64 	stw     r31,5476(r1)
    5600:	48 00 00 01 	bl      5600 <ApcInitNode+0x4ebc>
    5604:	2f 03 00 00 	cmpwi   cr6,r3,0
    5608:	40 9a 04 6c 	bne-    cr6,5a74 <ApcInitNode+0x5330>
    560c:	38 80 00 b8 	li      r4,184
    5610:	38 61 15 70 	addi    r3,r1,5488
    5614:	90 81 15 70 	stw     r4,5488(r1)
    5618:	90 81 00 10 	stw     r4,16(r1)
    561c:	93 e1 00 14 	stw     r31,20(r1)
    5620:	93 e1 15 74 	stw     r31,5492(r1)
    5624:	48 00 00 01 	bl      5624 <ApcInitNode+0x4ee0>
    5628:	2f 83 00 00 	cmpwi   cr7,r3,0
    562c:	40 9e 04 1c 	bne-    cr7,5a48 <ApcInitNode+0x5304>
    5630:	38 00 00 b7 	li      r0,183
    5634:	38 61 15 80 	addi    r3,r1,5504
    5638:	90 01 15 80 	stw     r0,5504(r1)
    563c:	90 01 00 10 	stw     r0,16(r1)
    5640:	93 e1 00 14 	stw     r31,20(r1)
    5644:	93 e1 15 84 	stw     r31,5508(r1)
    5648:	48 00 00 01 	bl      5648 <ApcInitNode+0x4f04>
    564c:	2c 03 00 00 	cmpwi   r3,0
    5650:	40 82 03 cc 	bne-    5a1c <ApcInitNode+0x52d8>
    5654:	38 80 00 b1 	li      r4,177
    5658:	38 61 15 90 	addi    r3,r1,5520
    565c:	90 81 15 90 	stw     r4,5520(r1)
    5660:	90 81 00 10 	stw     r4,16(r1)
    5664:	93 e1 00 14 	stw     r31,20(r1)
    5668:	93 e1 15 94 	stw     r31,5524(r1)
    566c:	48 00 00 01 	bl      566c <ApcInitNode+0x4f28>
    5670:	2c 83 00 00 	cmpwi   cr1,r3,0
    5674:	40 86 03 7c 	bne-    cr1,59f0 <ApcInitNode+0x52ac>
    5678:	38 00 00 b3 	li      r0,179
    567c:	38 61 15 a0 	addi    r3,r1,5536
    5680:	90 01 15 a0 	stw     r0,5536(r1)
    5684:	90 01 00 10 	stw     r0,16(r1)
    5688:	93 e1 00 14 	stw     r31,20(r1)
    568c:	93 e1 15 a4 	stw     r31,5540(r1)
    5690:	48 00 00 01 	bl      5690 <ApcInitNode+0x4f4c>
    5694:	2f 03 00 00 	cmpwi   cr6,r3,0
    5698:	40 9a 03 2c 	bne-    cr6,59c4 <ApcInitNode+0x5280>
    569c:	38 80 00 b9 	li      r4,185
    56a0:	38 61 15 b0 	addi    r3,r1,5552
    56a4:	90 81 15 b0 	stw     r4,5552(r1)
    56a8:	93 e1 15 b4 	stw     r31,5556(r1)
    56ac:	90 81 00 10 	stw     r4,16(r1)
    56b0:	93 e1 00 14 	stw     r31,20(r1)
    56b4:	48 00 00 01 	bl      56b4 <ApcInitNode+0x4f70>
    56b8:	2f 83 00 00 	cmpwi   cr7,r3,0
    56bc:	40 9e 02 dc 	bne-    cr7,5998 <ApcInitNode+0x5254>
    56c0:	38 00 01 47 	li      r0,327
    56c4:	39 20 00 03 	li      r9,3
    56c8:	38 61 15 c0 	addi    r3,r1,5568
    56cc:	90 01 15 c0 	stw     r0,5568(r1)
    56d0:	91 21 15 c4 	stw     r9,5572(r1)
    56d4:	4b ff b7 50 	b       e24 <ApcInitNode+0x6e0>
    56d8:	80 81 00 10 	lwz     r4,16(r1)
    56dc:	3d 80 00 00 	lis     r12,0
    56e0:	3b ec 00 00 	addi    r31,r12,0
    56e4:	3c 60 00 00 	lis     r3,0
    56e8:	1d 44 00 60 	mulli   r10,r4,96
    56ec:	38 63 4d 64 	addi    r3,r3,19812
    56f0:	7d 6a fa 14 	add     r11,r10,r31
    56f4:	80 ab 00 58 	lwz     r5,88(r11)
    56f8:	4c c6 31 82 	crclr   4*cr1+eq
    56fc:	48 00 00 01 	bl      56fc <ApcInitNode+0x4fb8>
    5700:	4b ff e3 e8 	b       3ae8 <ApcInitNode+0x33a4>
    5704:	80 81 00 10 	lwz     r4,16(r1)
    5708:	3d 20 00 00 	lis     r9,0
    570c:	39 09 00 00 	addi    r8,r9,0
    5710:	3d 80 00 00 	lis     r12,0
    5714:	1c e4 00 60 	mulli   r7,r4,96
    5718:	38 6c 4d 64 	addi    r3,r12,19812
    571c:	7c c7 42 14 	add     r6,r7,r8
    5720:	80 a6 00 58 	lwz     r5,88(r6)
    5724:	4c c6 31 82 	crclr   4*cr1+eq
    5728:	48 00 00 01 	bl      5728 <ApcInitNode+0x4fe4>
    572c:	4b ff e3 94 	b       3ac0 <ApcInitNode+0x337c>
    5730:	80 81 00 10 	lwz     r4,16(r1)
    5734:	3d 40 00 00 	lis     r10,0
    5738:	39 6a 00 00 	addi    r11,r10,0
    573c:	3d 20 00 00 	lis     r9,0
    5740:	1c a4 00 60 	mulli   r5,r4,96
    5744:	7c 65 5a 14 	add     r3,r5,r11
    5748:	80 a3 00 58 	lwz     r5,88(r3)
    574c:	38 69 4d 64 	addi    r3,r9,19812
    5750:	4c c6 31 82 	crclr   4*cr1+eq
    5754:	48 00 00 01 	bl      5754 <ApcInitNode+0x5010>
    5758:	4b ff e3 40 	b       3a98 <ApcInitNode+0x3354>
    575c:	80 81 00 10 	lwz     r4,16(r1)
    5760:	3c e0 00 00 	lis     r7,0
    5764:	38 c7 00 00 	addi    r6,r7,0
    5768:	3d 40 00 00 	lis     r10,0
    576c:	1d 84 00 60 	mulli   r12,r4,96
    5770:	38 6a 4d 64 	addi    r3,r10,19812
    5774:	7f ec 32 14 	add     r31,r12,r6
    5778:	80 bf 00 58 	lwz     r5,88(r31)
    577c:	4c c6 31 82 	crclr   4*cr1+eq
    5780:	48 00 00 01 	bl      5780 <ApcInitNode+0x503c>
    5784:	4b ff e2 ec 	b       3a70 <ApcInitNode+0x332c>
    5788:	80 81 00 10 	lwz     r4,16(r1)
    578c:	3c 60 00 00 	lis     r3,0
    5790:	39 23 00 00 	addi    r9,r3,0
    5794:	3c e0 00 00 	lis     r7,0
    5798:	1c a4 00 60 	mulli   r5,r4,96
    579c:	38 67 4d 64 	addi    r3,r7,19812
    57a0:	7d 05 4a 14 	add     r8,r5,r9
    57a4:	80 a8 00 58 	lwz     r5,88(r8)
    57a8:	4c c6 31 82 	crclr   4*cr1+eq
    57ac:	48 00 00 01 	bl      57ac <ApcInitNode+0x5068>
    57b0:	4b ff e2 98 	b       3a48 <ApcInitNode+0x3304>
    57b4:	80 81 00 10 	lwz     r4,16(r1)
    57b8:	3d 80 00 00 	lis     r12,0
    57bc:	3b ec 00 00 	addi    r31,r12,0
    57c0:	3c 60 00 00 	lis     r3,0
    57c4:	1d 44 00 60 	mulli   r10,r4,96
    57c8:	38 63 4d 64 	addi    r3,r3,19812
    57cc:	7d 6a fa 14 	add     r11,r10,r31
    57d0:	80 ab 00 58 	lwz     r5,88(r11)
    57d4:	4c c6 31 82 	crclr   4*cr1+eq
    57d8:	48 00 00 01 	bl      57d8 <ApcInitNode+0x5094>
    57dc:	4b ff e2 44 	b       3a20 <ApcInitNode+0x32dc>
    57e0:	80 81 00 10 	lwz     r4,16(r1)
    57e4:	3d 20 00 00 	lis     r9,0
    57e8:	39 09 00 00 	addi    r8,r9,0
    57ec:	3d 80 00 00 	lis     r12,0
    57f0:	1c e4 00 60 	mulli   r7,r4,96
    57f4:	38 6c 4d 64 	addi    r3,r12,19812
    57f8:	7c c7 42 14 	add     r6,r7,r8
    57fc:	80 a6 00 58 	lwz     r5,88(r6)
    5800:	4c c6 31 82 	crclr   4*cr1+eq
    5804:	48 00 00 01 	bl      5804 <ApcInitNode+0x50c0>
    5808:	4b ff e1 f0 	b       39f8 <ApcInitNode+0x32b4>
    580c:	80 81 00 10 	lwz     r4,16(r1)
    5810:	3d 40 00 00 	lis     r10,0
    5814:	39 6a 00 00 	addi    r11,r10,0
    5818:	3d 20 00 00 	lis     r9,0
    581c:	1c a4 00 60 	mulli   r5,r4,96
    5820:	7c 65 5a 14 	add     r3,r5,r11
    5824:	80 a3 00 58 	lwz     r5,88(r3)
    5828:	38 69 4d 64 	addi    r3,r9,19812
    582c:	4c c6 31 82 	crclr   4*cr1+eq
    5830:	48 00 00 01 	bl      5830 <ApcInitNode+0x50ec>
    5834:	4b ff e1 9c 	b       39d0 <ApcInitNode+0x328c>
    5838:	80 81 00 10 	lwz     r4,16(r1)
    583c:	3c e0 00 00 	lis     r7,0
    5840:	38 c7 00 00 	addi    r6,r7,0
    5844:	3d 40 00 00 	lis     r10,0
    5848:	1d 84 00 60 	mulli   r12,r4,96
    584c:	38 6a 4d 64 	addi    r3,r10,19812
    5850:	7f ec 32 14 	add     r31,r12,r6
    5854:	80 bf 00 58 	lwz     r5,88(r31)
    5858:	4c c6 31 82 	crclr   4*cr1+eq
    585c:	48 00 00 01 	bl      585c <ApcInitNode+0x5118>
    5860:	4b ff e1 48 	b       39a8 <ApcInitNode+0x3264>
    5864:	80 81 00 10 	lwz     r4,16(r1)
    5868:	3c 60 00 00 	lis     r3,0
    586c:	39 23 00 00 	addi    r9,r3,0
    5870:	3c e0 00 00 	lis     r7,0
    5874:	1c a4 00 60 	mulli   r5,r4,96
    5878:	38 67 4d 64 	addi    r3,r7,19812
    587c:	7d 05 4a 14 	add     r8,r5,r9
    5880:	80 a8 00 58 	lwz     r5,88(r8)
    5884:	4c c6 31 82 	crclr   4*cr1+eq
    5888:	48 00 00 01 	bl      5888 <ApcInitNode+0x5144>
    588c:	4b ff e0 f4 	b       3980 <ApcInitNode+0x323c>
    5890:	80 81 00 10 	lwz     r4,16(r1)
    5894:	3d 80 00 00 	lis     r12,0
    5898:	3b ec 00 00 	addi    r31,r12,0
    589c:	3c 60 00 00 	lis     r3,0
    58a0:	1d 44 00 60 	mulli   r10,r4,96
    58a4:	38 63 4d 64 	addi    r3,r3,19812
    58a8:	7d 6a fa 14 	add     r11,r10,r31
    58ac:	80 ab 00 58 	lwz     r5,88(r11)
    58b0:	4c c6 31 82 	crclr   4*cr1+eq
    58b4:	48 00 00 01 	bl      58b4 <ApcInitNode+0x5170>
    58b8:	4b ff e0 a0 	b       3958 <ApcInitNode+0x3214>
    58bc:	80 81 00 10 	lwz     r4,16(r1)
    58c0:	3d 00 00 00 	lis     r8,0
    58c4:	39 28 00 00 	addi    r9,r8,0
    58c8:	3d 80 00 00 	lis     r12,0
    58cc:	1c e4 00 60 	mulli   r7,r4,96
